(lp0
(dp1
S'nb_frames'
p2
F2751.0
sS'name'
p3
S'01_01'
p4
sS'use_split'
p5
S'train'
p6
sa(dp7
g2
F4346.0
sg3
S'01_02'
p8
sg5
g6
sa(dp9
g2
F4510.0
sg3
S'01_03'
p10
sg5
g6
sa(dp11
g2
F4298.0
sg3
S'01_04'
p12
sg5
g6
sa(dp13
g2
F4376.0
sg3
S'01_05'
p14
sg5
g6
sa(dp15
g2
F5133.0
sg3
S'01_06'
p16
sg5
g6
sa(dp17
g2
F4839.0
sg3
S'01_07'
p18
sg5
g6
sa(dp19
g2
F2610.0
sg3
S'01_08'
p20
sg5
g6
sa(dp21
g2
F4242.0
sg3
S'01_09'
p22
sg5
g6
sa(dp23
g2
F3266.0
sg3
S'01_10'
p24
sg5
g6
sa(dp25
g2
F4654.0
sg3
S'01_11'
p26
sg5
g6
sa(dp27
g2
F4109.0
sg3
S'01_12'
p28
sg5
g6
sa(dp29
g2
F3385.0
sg3
S'01_13'
p30
sg5
g6
sa(dp31
g2
F343.0
sg3
S'02_01'
p32
sg5
g6
sa(dp33
g2
F298.0
sg3
S'02_02'
p34
sg5
g6
sa(dp35
g2
F173.0
sg3
S'02_03'
p36
sg5
g6
sa(dp37
g2
F483.0
sg3
S'02_04'
p38
sg5
g6
sa(dp39
g2
F1854.0
sg3
S'02_05'
p40
sg5
g6
sa(dp41
g2
F2235.0
sg3
S'02_06'
p42
sg5
g6
sa(dp43
g2
F2251.0
sg3
S'02_07'
p44
sg5
g6
sa(dp45
g2
F1500.0
sg3
S'02_08'
p46
sg5
g6
sa(dp47
g2
F1033.0
sg3
S'02_09'
p48
sg5
g6
sa(dp49
g2
F2645.0
sg3
S'02_10'
p50
sg5
g6
sa(dp51
g2
F2744.0
sg3
S'03_01'
p52
sg5
S'test'
p53
sa(dp54
g2
F365.0
sg3
S'03_02'
p55
sg5
g53
sa(dp56
g2
F4563.0
sg3
S'03_03'
p57
sg5
g53
sa(dp58
g2
F4722.0
sg3
S'03_04'
p59
sg5
g53
sa(dp60
g2
F598.0
sg3
S'05_01'
p61
sg5
g6
sa(dp62
g2
F1123.0
sg3
S'05_02'
p63
sg5
g6
sa(dp64
g2
F434.0
sg3
S'05_03'
p65
sg5
g6
sa(dp66
g2
F1199.0
sg3
S'05_04'
p67
sg5
g6
sa(dp68
g2
F915.0
sg3
S'05_05'
p69
sg5
g6
sa(dp70
g2
F885.0
sg3
S'05_06'
p71
sg5
g6
sa(dp72
g2
F1191.0
sg3
S'05_07'
p73
sg5
g6
sa(dp74
g2
F721.0
sg3
S'05_08'
p75
sg5
g6
sa(dp76
g2
F817.0
sg3
S'05_10'
p77
sg5
g6
sa(dp78
g2
F591.0
sg3
S'05_11'
p79
sg5
g6
sa(dp80
g2
F1354.0
sg3
S'05_12'
p81
sg5
g6
sa(dp82
g2
F1095.0
sg3
S'05_13'
p83
sg5
g6
sa(dp84
g2
F642.0
sg3
S'05_14'
p85
sg5
g6
sa(dp86
g2
F540.0
sg3
S'05_15'
p87
sg5
g6
sa(dp88
g2
F525.0
sg3
S'05_16'
p89
sg5
g6
sa(dp90
g2
F1043.0
sg3
S'05_17'
p91
sg5
g6
sa(dp92
g2
F1829.0
sg3
S'05_18'
p93
sg5
g6
sa(dp94
g2
F860.0
sg3
S'05_19'
p95
sg5
g6
sa(dp96
g2
F1095.0
sg3
S'05_20'
p97
sg5
g6
sa(dp98
g2
F494.0
sg3
S'06_01'
p99
sg5
g53
sa(dp100
g2
F527.0
sg3
S'06_03'
p101
sg5
g53
sa(dp102
g2
F396.0
sg3
S'06_04'
p103
sg5
g53
sa(dp104
g2
F385.0
sg3
S'06_05'
p105
sg5
g53
sa(dp106
g2
F402.0
sg3
S'06_06'
p107
sg5
g53
sa(dp108
g2
F576.0
sg3
S'06_07'
p109
sg5
g53
sa(dp110
g2
F342.0
sg3
S'06_08'
p111
sg5
g53
sa(dp112
g2
F301.0
sg3
S'06_09'
p113
sg5
g53
sa(dp114
g2
F1113.0
sg3
S'06_10'
p115
sg5
g53
sa(dp116
g2
F1146.0
sg3
S'06_11'
p117
sg5
g53
sa(dp118
g2
F1222.0
sg3
S'06_12'
p119
sg5
g53
sa(dp120
g2
F479.0
sg3
S'06_14'
p121
sg5
g53
sa(dp122
g2
F545.0
sg3
S'06_15'
p123
sg5
g53
sa(dp124
g2
F277.0
sg3
S'08_01'
p125
sg5
g6
sa(dp126
g2
F309.0
sg3
S'08_02'
p127
sg5
g6
sa(dp128
g2
F353.0
sg3
S'08_03'
p129
sg5
g6
sa(dp130
g2
F484.0
sg3
S'08_04'
p131
sg5
g6
sa(dp132
g2
F298.0
sg3
S'08_05'
p133
sg5
g6
sa(dp134
g2
F296.0
sg3
S'08_06'
p135
sg5
g6
sa(dp136
g2
F283.0
sg3
S'08_08'
p137
sg5
g6
sa(dp138
g2
F293.0
sg3
S'08_09'
p139
sg5
g6
sa(dp140
g2
F275.0
sg3
S'08_10'
p141
sg5
g6
sa(dp142
g2
F375.0
sg3
S'08_11'
p143
sg5
g6
sa(dp144
g2
F148.0
sg3
S'09_01'
p145
sg5
g53
sa(dp146
g2
F130.0
sg3
S'09_02'
p147
sg5
g53
sa(dp148
g2
F128.0
sg3
S'09_03'
p149
sg5
g53
sa(dp150
g2
F137.0
sg3
S'09_04'
p151
sg5
g53
sa(dp152
g2
F143.0
sg3
S'09_05'
p153
sg5
g53
sa(dp154
g2
F141.0
sg3
S'09_06'
p155
sg5
g53
sa(dp156
g2
F138.0
sg3
S'09_07'
p157
sg5
g53
sa(dp158
g2
F128.0
sg3
S'09_08'
p159
sg5
g53
sa(dp160
g2
F152.0
sg3
S'09_09'
p161
sg5
g53
sa(dp162
g2
F132.0
sg3
S'09_10'
p163
sg5
g53
sa(dp164
g2
F165.0
sg3
S'09_11'
p165
sg5
g53
sa(dp166
g2
F1918.0
sg3
S'09_12'
p167
sg5
g53
sa(dp168
g2
F885.0
sg3
S'104_02'
p169
sg5
g53
sa(dp170
g2
F1619.0
sg3
S'104_03'
p171
sg5
g53
sa(dp172
g2
F198.0
sg3
S'104_04'
p173
sg5
g53
sa(dp174
g2
F337.0
sg3
S'104_06'
p175
sg5
g53
sa(dp176
g2
F2304.0
sg3
S'104_07'
p177
sg5
g53
sa(dp178
g2
F314.0
sg3
S'104_08'
p179
sg5
g53
sa(dp180
g2
F349.0
sg3
S'104_09'
p181
sg5
g53
sa(dp182
g2
F334.0
sg3
S'104_10'
p183
sg5
g53
sa(dp184
g2
F539.0
sg3
S'104_11'
p185
sg5
g53
sa(dp186
g2
F421.0
sg3
S'104_12'
p187
sg5
g53
sa(dp188
g2
F550.0
sg3
S'104_13'
p189
sg5
g53
sa(dp190
g2
F709.0
sg3
S'104_14'
p191
sg5
g53
sa(dp192
g2
F208.0
sg3
S'104_15'
p193
sg5
g53
sa(dp194
g2
F327.0
sg3
S'104_16'
p195
sg5
g53
sa(dp196
g2
F465.0
sg3
S'104_17'
p197
sg5
g53
sa(dp198
g2
F921.0
sg3
S'104_19'
p199
sg5
g53
sa(dp200
g2
F701.0
sg3
S'104_20'
p201
sg5
g53
sa(dp202
g2
F789.0
sg3
S'104_21'
p203
sg5
g53
sa(dp204
g2
F1838.0
sg3
S'104_22'
p205
sg5
g53
sa(dp206
g2
F1834.0
sg3
S'104_23'
p207
sg5
g53
sa(dp208
g2
F1896.0
sg3
S'104_24'
p209
sg5
g53
sa(dp210
g2
F2451.0
sg3
S'104_25'
p211
sg5
g53
sa(dp212
g2
F1100.0
sg3
S'104_26'
p213
sg5
g53
sa(dp214
g2
F2434.0
sg3
S'104_27'
p215
sg5
g53
sa(dp216
g2
F480.0
sg3
S'104_29'
p217
sg5
g53
sa(dp218
g2
F1365.0
sg3
S'104_30'
p219
sg5
g53
sa(dp220
g2
F1287.0
sg3
S'104_31'
p221
sg5
g53
sa(dp222
g2
F1565.0
sg3
S'104_32'
p223
sg5
g53
sa(dp224
g2
F1486.0
sg3
S'104_33'
p225
sg5
g53
sa(dp226
g2
F1115.0
sg3
S'104_34'
p227
sg5
g53
sa(dp228
g2
F1074.0
sg3
S'104_35'
p229
sg5
g53
sa(dp230
g2
F2315.0
sg3
S'104_36'
p231
sg5
g53
sa(dp232
g2
F150.0
sg3
S'104_37'
p233
sg5
g53
sa(dp234
g2
F2669.0
sg3
S'104_38'
p235
sg5
g53
sa(dp236
g2
F3214.0
sg3
S'104_39'
p237
sg5
g53
sa(dp238
g2
F3036.0
sg3
S'104_40'
p239
sg5
g53
sa(dp240
g2
F1558.0
sg3
S'104_41'
p241
sg5
g53
sa(dp242
g2
F2613.0
sg3
S'104_42'
p243
sg5
g53
sa(dp244
g2
F3377.0
sg3
S'104_43'
p245
sg5
g53
sa(dp246
g2
F1087.0
sg3
S'104_44'
p247
sg5
g53
sa(dp248
g2
F2207.0
sg3
S'104_45'
p249
sg5
g53
sa(dp250
g2
F2783.0
sg3
S'104_46'
p251
sg5
g53
sa(dp252
g2
F1694.0
sg3
S'104_47'
p253
sg5
g53
sa(dp254
g2
F2726.0
sg3
S'104_49'
p255
sg5
g53
sa(dp256
g2
F3205.0
sg3
S'104_50'
p257
sg5
g53
sa(dp258
g2
F1382.0
sg3
S'104_51'
p259
sg5
g53
sa(dp260
g2
F2708.0
sg3
S'104_52'
p261
sg5
g53
sa(dp262
g2
F299.0
sg3
S'104_53'
p263
sg5
g53
sa(dp264
g2
F249.0
sg3
S'104_54'
p265
sg5
g53
sa(dp266
g2
F368.0
sg3
S'104_56'
p267
sg5
g53
sa(dp268
g2
F384.0
sg3
S'104_57'
p269
sg5
g53
sa(dp270
g2
F2737.0
sg3
S'105_01'
p271
sg5
g6
sa(dp272
g2
F1748.0
sg3
S'105_02'
p273
sg5
g6
sa(dp274
g2
F1865.0
sg3
S'105_03'
p275
sg5
g6
sa(dp276
g2
F2162.0
sg3
S'105_04'
p277
sg5
g6
sa(dp278
g2
F2700.0
sg3
S'105_05'
p279
sg5
g6
sa(dp280
g2
F136.0
sg3
S'105_06'
p281
sg5
g6
sa(dp282
g2
F2582.0
sg3
S'105_07'
p283
sg5
g6
sa(dp284
g2
F3972.0
sg3
S'105_08'
p285
sg5
g6
sa(dp286
g2
F5402.0
sg3
S'105_09'
p287
sg5
g6
sa(dp288
g2
F3175.0
sg3
S'105_10'
p289
sg5
g6
sa(dp290
g2
F1863.0
sg3
S'105_11'
p291
sg5
g6
sa(dp292
g2
F2222.0
sg3
S'105_12'
p293
sg5
g6
sa(dp294
g2
F2960.0
sg3
S'105_13'
p295
sg5
g6
sa(dp296
g2
F2769.0
sg3
S'105_14'
p297
sg5
g6
sa(dp298
g2
F3090.0
sg3
S'105_15'
p299
sg5
g6
sa(dp300
g2
F1892.0
sg3
S'105_16'
p301
sg5
g6
sa(dp302
g2
F3363.0
sg3
S'105_18'
p303
sg5
g6
sa(dp304
g2
F1885.0
sg3
S'105_19'
p305
sg5
g6
sa(dp306
g2
F2774.0
sg3
S'105_20'
p307
sg5
g6
sa(dp308
g2
F3870.0
sg3
S'105_21'
p309
sg5
g6
sa(dp310
g2
F2106.0
sg3
S'105_22'
p311
sg5
g6
sa(dp312
g2
F2668.0
sg3
S'105_23'
p313
sg5
g6
sa(dp314
g2
F3804.0
sg3
S'105_24'
p315
sg5
g6
sa(dp316
g2
F3137.0
sg3
S'105_25'
p317
sg5
g6
sa(dp318
g2
F2082.0
sg3
S'105_26'
p319
sg5
g6
sa(dp320
g2
F2894.0
sg3
S'105_27'
p321
sg5
g6
sa(dp322
g2
F3307.0
sg3
S'105_28'
p323
sg5
g6
sa(dp324
g2
F2181.0
sg3
S'105_29'
p325
sg5
g6
sa(dp326
g2
F3139.0
sg3
S'105_30'
p327
sg5
g6
sa(dp328
g2
F1992.0
sg3
S'105_31'
p329
sg5
g6
sa(dp330
g2
F3724.0
sg3
S'105_32'
p331
sg5
g6
sa(dp332
g2
F2698.0
sg3
S'105_33'
p333
sg5
g6
sa(dp334
g2
F2208.0
sg3
S'105_34'
p335
sg5
g6
sa(dp336
g2
F3052.0
sg3
S'105_35'
p337
sg5
g6
sa(dp338
g2
F887.0
sg3
S'105_36'
p339
sg5
g6
sa(dp340
g2
F315.0
sg3
S'105_37'
p341
sg5
g6
sa(dp342
g2
F458.0
sg3
S'105_38'
p343
sg5
g6
sa(dp344
g2
F446.0
sg3
S'105_39'
p345
sg5
g6
sa(dp346
g2
F469.0
sg3
S'105_40'
p347
sg5
g6
sa(dp348
g2
F503.0
sg3
S'105_41'
p349
sg5
g6
sa(dp350
g2
F227.0
sg3
S'105_43'
p351
sg5
g6
sa(dp352
g2
F338.0
sg3
S'105_44'
p353
sg5
g6
sa(dp354
g2
F371.0
sg3
S'105_45'
p355
sg5
g6
sa(dp356
g2
F322.0
sg3
S'105_46'
p357
sg5
g6
sa(dp358
g2
F469.0
sg3
S'105_47'
p359
sg5
g6
sa(dp360
g2
F440.0
sg3
S'105_48'
p361
sg5
g6
sa(dp362
g2
F482.0
sg3
S'105_49'
p363
sg5
g6
sa(dp364
g2
F663.0
sg3
S'105_50'
p365
sg5
g6
sa(dp366
g2
F484.0
sg3
S'105_51'
p367
sg5
g6
sa(dp368
g2
F509.0
sg3
S'105_52'
p369
sg5
g6
sa(dp370
g2
F555.0
sg3
S'105_53'
p371
sg5
g6
sa(dp372
g2
F678.0
sg3
S'105_54'
p373
sg5
g6
sa(dp374
g2
F467.0
sg3
S'105_55'
p375
sg5
g6
sa(dp376
g2
F500.0
sg3
S'105_56'
p377
sg5
g6
sa(dp378
g2
F1177.0
sg3
S'105_57'
p379
sg5
g6
sa(dp380
g2
F493.0
sg3
S'105_58'
p381
sg5
g6
sa(dp382
g2
F312.0
sg3
S'105_59'
p383
sg5
g6
sa(dp384
g2
F367.0
sg3
S'105_60'
p385
sg5
g6
sa(dp386
g2
F1849.0
sg3
S'105_62'
p387
sg5
g6
sa(dp388
g2
F74.0
sg3
S'106_01'
p389
sg5
g6
sa(dp390
g2
F112.0
sg3
S'106_02'
p391
sg5
g6
sa(dp392
g2
F230.0
sg3
S'106_03'
p393
sg5
g6
sa(dp394
g2
F547.0
sg3
S'106_04'
p395
sg5
g6
sa(dp396
g2
F230.0
sg3
S'106_05'
p397
sg5
g6
sa(dp398
g2
F651.0
sg3
S'106_06'
p399
sg5
g6
sa(dp400
g2
F298.0
sg3
S'106_07'
p401
sg5
g6
sa(dp402
g2
F331.0
sg3
S'106_08'
p403
sg5
g6
sa(dp404
g2
F234.0
sg3
S'106_09'
p405
sg5
g6
sa(dp406
g2
F507.0
sg3
S'106_10'
p407
sg5
g6
sa(dp408
g2
F686.0
sg3
S'106_11'
p409
sg5
g6
sa(dp410
g2
F568.0
sg3
S'106_12'
p411
sg5
g6
sa(dp412
g2
F368.0
sg3
S'106_13'
p413
sg5
g6
sa(dp414
g2
F577.0
sg3
S'106_14'
p415
sg5
g6
sa(dp416
g2
F1165.0
sg3
S'106_15'
p417
sg5
g6
sa(dp418
g2
F299.0
sg3
S'106_16'
p419
sg5
g6
sa(dp420
g2
F561.0
sg3
S'106_17'
p421
sg5
g6
sa(dp422
g2
F388.0
sg3
S'106_18'
p423
sg5
g6
sa(dp424
g2
F1193.0
sg3
S'106_19'
p425
sg5
g6
sa(dp426
g2
F763.0
sg3
S'106_20'
p427
sg5
g6
sa(dp428
g2
F272.0
sg3
S'106_21'
p429
sg5
g6
sa(dp430
g2
F198.0
sg3
S'106_22'
p431
sg5
g6
sa(dp432
g2
F256.0
sg3
S'106_23'
p433
sg5
g6
sa(dp434
g2
F260.0
sg3
S'106_24'
p435
sg5
g6
sa(dp436
g2
F398.0
sg3
S'106_26'
p437
sg5
g6
sa(dp438
g2
F555.0
sg3
S'106_27'
p439
sg5
g6
sa(dp440
g2
F355.0
sg3
S'106_28'
p441
sg5
g6
sa(dp442
g2
F1166.0
sg3
S'106_29'
p443
sg5
g6
sa(dp444
g2
F721.0
sg3
S'106_30'
p445
sg5
g6
sa(dp446
g2
F671.0
sg3
S'106_31'
p447
sg5
g6
sa(dp448
g2
F888.0
sg3
S'106_32'
p449
sg5
g6
sa(dp450
g2
F1059.0
sg3
S'106_33'
p451
sg5
g6
sa(dp452
g2
F314.0
sg3
S'106_34'
p453
sg5
g6
sa(dp454
g2
F531.0
sg3
S'107_01'
p455
sg5
g53
sa(dp456
g2
F688.0
sg3
S'107_02'
p457
sg5
g53
sa(dp458
g2
F513.0
sg3
S'107_03'
p459
sg5
g53
sa(dp460
g2
F436.0
sg3
S'107_04'
p461
sg5
g53
sa(dp462
g2
F369.0
sg3
S'107_06'
p463
sg5
g53
sa(dp464
g2
F515.0
sg3
S'107_07'
p465
sg5
g53
sa(dp466
g2
F828.0
sg3
S'107_08'
p467
sg5
g53
sa(dp468
g2
F626.0
sg3
S'107_09'
p469
sg5
g53
sa(dp470
g2
F569.0
sg3
S'107_10'
p471
sg5
g53
sa(dp472
g2
F600.0
sg3
S'107_11'
p473
sg5
g53
sa(dp474
g2
F255.0
sg3
S'107_12'
p475
sg5
g53
sa(dp476
g2
F215.0
sg3
S'107_13'
p477
sg5
g53
sa(dp478
g2
F442.0
sg3
S'107_14'
p479
sg5
g53
sa(dp480
g2
F723.0
sg3
S'108_01'
p481
sg5
g53
sa(dp482
g2
F1144.0
sg3
S'108_02'
p483
sg5
g53
sa(dp484
g2
F1227.0
sg3
S'108_03'
p485
sg5
g53
sa(dp486
g2
F184.0
sg3
S'108_04'
p487
sg5
g53
sa(dp488
g2
F183.0
sg3
S'108_05'
p489
sg5
g53
sa(dp490
g2
F189.0
sg3
S'108_06'
p491
sg5
g53
sa(dp492
g2
F223.0
sg3
S'108_07'
p493
sg5
g53
sa(dp494
g2
F225.0
sg3
S'108_08'
p495
sg5
g53
sa(dp496
g2
F238.0
sg3
S'108_10'
p497
sg5
g53
sa(dp498
g2
F244.0
sg3
S'108_11'
p499
sg5
g53
sa(dp500
g2
F137.0
sg3
S'108_12'
p501
sg5
g53
sa(dp502
g2
F156.0
sg3
S'108_13'
p503
sg5
g53
sa(dp504
g2
F176.0
sg3
S'108_14'
p505
sg5
g53
sa(dp506
g2
F356.0
sg3
S'108_15'
p507
sg5
g53
sa(dp508
g2
F353.0
sg3
S'108_16'
p509
sg5
g53
sa(dp510
g2
F231.0
sg3
S'108_17'
p511
sg5
g53
sa(dp512
g2
F246.0
sg3
S'108_18'
p513
sg5
g53
sa(dp514
g2
F279.0
sg3
S'108_20'
p515
sg5
g53
sa(dp516
g2
F496.0
sg3
S'108_21'
p517
sg5
g53
sa(dp518
g2
F462.0
sg3
S'108_22'
p519
sg5
g53
sa(dp520
g2
F664.0
sg3
S'108_23'
p521
sg5
g53
sa(dp522
g2
F531.0
sg3
S'108_24'
p523
sg5
g53
sa(dp524
g2
F611.0
sg3
S'108_25'
p525
sg5
g53
sa(dp526
g2
F553.0
sg3
S'108_26'
p527
sg5
g53
sa(dp528
g2
F419.0
sg3
S'108_27'
p529
sg5
g53
sa(dp530
g2
F363.0
sg3
S'108_28'
p531
sg5
g53
sa(dp532
g2
F801.0
sg3
S'10_01'
p533
sg5
g53
sa(dp534
g2
F590.0
sg3
S'10_02'
p535
sg5
g53
sa(dp536
g2
F362.0
sg3
S'10_03'
p537
sg5
g53
sa(dp538
g2
F549.0
sg3
S'10_04'
p539
sg5
g53
sa(dp540
g2
F436.0
sg3
S'10_05'
p541
sg5
g53
sa(dp542
g2
F999.0
sg3
S'111_01'
p543
sg5
g6
sa(dp544
g2
F423.0
sg3
S'111_02'
p545
sg5
g6
sa(dp546
g2
F1524.0
sg3
S'111_03'
p547
sg5
g6
sa(dp548
g2
F926.0
sg3
S'111_05'
p549
sg5
g6
sa(dp550
g2
F1524.0
sg3
S'111_06'
p551
sg5
g6
sa(dp552
g2
F1973.0
sg3
S'111_07'
p553
sg5
g6
sa(dp554
g2
F1534.0
sg3
S'111_08'
p555
sg5
g6
sa(dp556
g2
F785.0
sg3
S'111_09'
p557
sg5
g6
sa(dp558
g2
F449.0
sg3
S'111_10'
p559
sg5
g6
sa(dp560
g2
F572.0
sg3
S'111_11'
p561
sg5
g6
sa(dp562
g2
F1617.0
sg3
S'111_12'
p563
sg5
g6
sa(dp564
g2
F1281.0
sg3
S'111_13'
p565
sg5
g6
sa(dp566
g2
F1288.0
sg3
S'111_14'
p567
sg5
g6
sa(dp568
g2
F269.0
sg3
S'111_15'
p569
sg5
g6
sa(dp570
g2
F430.0
sg3
S'111_16'
p571
sg5
g6
sa(dp572
g2
F564.0
sg3
S'111_17'
p573
sg5
g6
sa(dp574
g2
F541.0
sg3
S'111_18'
p575
sg5
g6
sa(dp576
g2
F1024.0
sg3
S'111_19'
p577
sg5
g6
sa(dp578
g2
F1059.0
sg3
S'111_20'
p579
sg5
g6
sa(dp580
g2
F2275.0
sg3
S'111_21'
p581
sg5
g6
sa(dp582
g2
F5922.0
sg3
S'111_22'
p583
sg5
g6
sa(dp584
g2
F1129.0
sg3
S'111_23'
p585
sg5
g6
sa(dp586
g2
F862.0
sg3
S'111_24'
p587
sg5
g6
sa(dp588
g2
F291.0
sg3
S'111_25'
p589
sg5
g6
sa(dp590
g2
F2721.0
sg3
S'111_26'
p591
sg5
g6
sa(dp592
g2
F1907.0
sg3
S'111_28'
p593
sg5
g6
sa(dp594
g2
F545.0
sg3
S'111_29'
p595
sg5
g6
sa(dp596
g2
F462.0
sg3
S'111_30'
p597
sg5
g6
sa(dp598
g2
F2247.0
sg3
S'111_31'
p599
sg5
g6
sa(dp600
g2
F748.0
sg3
S'111_32'
p601
sg5
g6
sa(dp602
g2
F2069.0
sg3
S'111_33'
p603
sg5
g6
sa(dp604
g2
F1837.0
sg3
S'111_34'
p605
sg5
g6
sa(dp606
g2
F1465.0
sg3
S'111_36'
p607
sg5
g6
sa(dp608
g2
F324.0
sg3
S'111_37'
p609
sg5
g6
sa(dp610
g2
F2640.0
sg3
S'111_38'
p611
sg5
g6
sa(dp612
g2
F4094.0
sg3
S'111_39'
p613
sg5
g6
sa(dp614
g2
F307.0
sg3
S'111_40'
p615
sg5
g6
sa(dp616
g2
F3697.0
sg3
S'111_41'
p617
sg5
g6
sa(dp618
g2
F715.0
sg3
S'123_01'
p619
sg5
g6
sa(dp620
g2
F759.0
sg3
S'123_02'
p621
sg5
g6
sa(dp622
g2
F1853.0
sg3
S'123_03'
p623
sg5
g6
sa(dp624
g2
F1669.0
sg3
S'123_04'
p625
sg5
g6
sa(dp626
g2
F904.0
sg3
S'123_05'
p627
sg5
g6
sa(dp628
g2
F835.0
sg3
S'123_06'
p629
sg5
g6
sa(dp630
g2
F1560.0
sg3
S'123_07'
p631
sg5
g6
sa(dp632
g2
F854.0
sg3
S'123_08'
p633
sg5
g6
sa(dp634
g2
F840.0
sg3
S'123_09'
p635
sg5
g6
sa(dp636
g2
F799.0
sg3
S'123_10'
p637
sg5
g6
sa(dp638
g2
F627.0
sg3
S'123_11'
p639
sg5
g6
sa(dp640
g2
F796.0
sg3
S'123_12'
p641
sg5
g6
sa(dp642
g2
F673.0
sg3
S'123_13'
p643
sg5
g6
sa(dp644
g2
F2593.0
sg3
S'126_01'
p645
sg5
g6
sa(dp646
g2
F1758.0
sg3
S'126_02'
p647
sg5
g6
sa(dp648
g2
F2583.0
sg3
S'126_03'
p649
sg5
g6
sa(dp650
g2
F1657.0
sg3
S'126_04'
p651
sg5
g6
sa(dp652
g2
F1559.0
sg3
S'126_05'
p653
sg5
g6
sa(dp654
g2
F2507.0
sg3
S'126_06'
p655
sg5
g6
sa(dp656
g2
F2516.0
sg3
S'126_07'
p657
sg5
g6
sa(dp658
g2
F1536.0
sg3
S'126_08'
p659
sg5
g6
sa(dp660
g2
F1780.0
sg3
S'126_09'
p661
sg5
g6
sa(dp662
g2
F1253.0
sg3
S'126_10'
p663
sg5
g6
sa(dp664
g2
F1829.0
sg3
S'126_11'
p665
sg5
g6
sa(dp666
g2
F2417.0
sg3
S'126_12'
p667
sg5
g6
sa(dp668
g2
F115.0
sg3
S'126_13'
p669
sg5
g6
sa(dp670
g2
F6757.0
sg3
S'126_14'
p671
sg5
g6
sa(dp672
g2
F325.0
sg3
S'128_01'
p673
sg5
g53
sa(dp674
g2
F167.0
sg3
S'128_02'
p675
sg5
g53
sa(dp676
g2
F164.0
sg3
S'128_03'
p677
sg5
g53
sa(dp678
g2
F136.0
sg3
S'128_04'
p679
sg5
g53
sa(dp680
g2
F209.0
sg3
S'128_05'
p681
sg5
g53
sa(dp682
g2
F197.0
sg3
S'128_06'
p683
sg5
g53
sa(dp684
g2
F346.0
sg3
S'128_07'
p685
sg5
g53
sa(dp686
g2
F330.0
sg3
S'128_08'
p687
sg5
g53
sa(dp688
g2
F172.0
sg3
S'128_09'
p689
sg5
g53
sa(dp690
g2
F427.0
sg3
S'128_10'
p691
sg5
g53
sa(dp692
g2
F378.0
sg3
S'128_11'
p693
sg5
g53
sa(dp694
g2
F994.0
sg3
S'131_01'
p695
sg5
g6
sa(dp696
g2
F1247.0
sg3
S'131_02'
p697
sg5
g6
sa(dp698
g2
F1102.0
sg3
S'131_03'
p699
sg5
g6
sa(dp700
g2
F1086.0
sg3
S'131_04'
p701
sg5
g6
sa(dp702
g2
F1264.0
sg3
S'131_05'
p703
sg5
g6
sa(dp704
g2
F1184.0
sg3
S'131_06'
p705
sg5
g6
sa(dp706
g2
F691.0
sg3
S'131_07'
p707
sg5
g6
sa(dp708
g2
F784.0
sg3
S'131_08'
p709
sg5
g6
sa(dp710
g2
F2293.0
sg3
S'131_09'
p711
sg5
g6
sa(dp712
g2
F1777.0
sg3
S'131_10'
p713
sg5
g6
sa(dp714
g2
F1168.0
sg3
S'131_11'
p715
sg5
g6
sa(dp716
g2
F767.0
sg3
S'131_12'
p717
sg5
g6
sa(dp718
g2
F1316.0
sg3
S'131_13'
p719
sg5
g6
sa(dp720
g2
F1932.0
sg3
S'131_14'
p721
sg5
g6
sa(dp722
g2
F1413.0
sg3
S'132_01'
p723
sg5
g6
sa(dp724
g2
F1141.0
sg3
S'132_02'
p725
sg5
g6
sa(dp726
g2
F1477.0
sg3
S'132_03'
p727
sg5
g6
sa(dp728
g2
F1350.0
sg3
S'132_04'
p729
sg5
g6
sa(dp730
g2
F1316.0
sg3
S'132_05'
p731
sg5
g6
sa(dp732
g2
F1328.0
sg3
S'132_06'
p733
sg5
g6
sa(dp734
g2
F903.0
sg3
S'132_07'
p735
sg5
g6
sa(dp736
g2
F1453.0
sg3
S'132_08'
p737
sg5
g6
sa(dp738
g2
F1182.0
sg3
S'132_09'
p739
sg5
g6
sa(dp740
g2
F1624.0
sg3
S'132_10'
p741
sg5
g6
sa(dp742
g2
F1610.0
sg3
S'132_11'
p743
sg5
g6
sa(dp744
g2
F1581.0
sg3
S'132_12'
p745
sg5
g6
sa(dp746
g2
F9514.0
sg3
S'132_13'
p747
sg5
g6
sa(dp748
g2
F7484.0
sg3
S'132_14'
p749
sg5
g6
sa(dp750
g2
F6545.0
sg3
S'132_15'
p751
sg5
g6
sa(dp752
g2
F9306.0
sg3
S'132_16'
p753
sg5
g6
sa(dp754
g2
F268.0
sg3
S'132_17'
p755
sg5
g6
sa(dp756
g2
F425.0
sg3
S'132_18'
p757
sg5
g6
sa(dp758
g2
F271.0
sg3
S'132_19'
p759
sg5
g6
sa(dp760
g2
F342.0
sg3
S'132_20'
p761
sg5
g6
sa(dp762
g2
F354.0
sg3
S'132_21'
p763
sg5
g6
sa(dp764
g2
F371.0
sg3
S'132_22'
p765
sg5
g6
sa(dp766
g2
F746.0
sg3
S'132_23'
p767
sg5
g6
sa(dp768
g2
F739.0
sg3
S'132_24'
p769
sg5
g6
sa(dp770
g2
F556.0
sg3
S'132_25'
p771
sg5
g6
sa(dp772
g2
F727.0
sg3
S'132_27'
p773
sg5
g6
sa(dp774
g2
F718.0
sg3
S'132_28'
p775
sg5
g6
sa(dp776
g2
F777.0
sg3
S'132_29'
p777
sg5
g6
sa(dp778
g2
F783.0
sg3
S'132_30'
p779
sg5
g6
sa(dp780
g2
F718.0
sg3
S'132_31'
p781
sg5
g6
sa(dp782
g2
F644.0
sg3
S'132_32'
p783
sg5
g6
sa(dp784
g2
F411.0
sg3
S'132_33'
p785
sg5
g6
sa(dp786
g2
F517.0
sg3
S'132_34'
p787
sg5
g6
sa(dp788
g2
F1265.0
sg3
S'132_35'
p789
sg5
g6
sa(dp790
g2
F3895.0
sg3
S'132_36'
p791
sg5
g6
sa(dp792
g2
F6731.0
sg3
S'132_37'
p793
sg5
g6
sa(dp794
g2
F180.0
sg3
S'132_38'
p795
sg5
g6
sa(dp796
g2
F6249.0
sg3
S'132_39'
p797
sg5
g6
sa(dp798
g2
F847.0
sg3
S'132_40'
p799
sg5
g6
sa(dp800
g2
F6359.0
sg3
S'132_41'
p801
sg5
g6
sa(dp802
g2
F690.0
sg3
S'132_42'
p803
sg5
g6
sa(dp804
g2
F804.0
sg3
S'132_43'
p805
sg5
g6
sa(dp806
g2
F5203.0
sg3
S'132_44'
p807
sg5
g6
sa(dp808
g2
F1531.0
sg3
S'132_45'
p809
sg5
g6
sa(dp810
g2
F1223.0
sg3
S'132_46'
p811
sg5
g6
sa(dp812
g2
F1510.0
sg3
S'132_47'
p813
sg5
g6
sa(dp814
g2
F1625.0
sg3
S'132_48'
p815
sg5
g6
sa(dp816
g2
F1748.0
sg3
S'132_49'
p817
sg5
g6
sa(dp818
g2
F2139.0
sg3
S'132_50'
p819
sg5
g6
sa(dp820
g2
F174.0
sg3
S'132_51'
p821
sg5
g6
sa(dp822
g2
F1335.0
sg3
S'132_52'
p823
sg5
g6
sa(dp824
g2
F6502.0
sg3
S'132_53'
p825
sg5
g6
sa(dp826
g2
F6029.0
sg3
S'132_54'
p827
sg5
g6
sa(dp828
g2
F3095.0
sg3
S'132_55'
p829
sg5
g6
sa(dp830
g2
F7084.0
sg3
S'132_56'
p831
sg5
g6
sa(dp832
g2
F6116.0
sg3
S'135_01'
p833
sg5
g6
sa(dp834
g2
F5202.0
sg3
S'135_02'
p835
sg5
g6
sa(dp836
g2
F2749.0
sg3
S'135_03'
p837
sg5
g6
sa(dp838
g2
F1316.0
sg3
S'135_04'
p839
sg5
g6
sa(dp840
g2
F2460.0
sg3
S'135_05'
p841
sg5
g6
sa(dp842
g2
F3261.0
sg3
S'135_06'
p843
sg5
g6
sa(dp844
g2
F1472.0
sg3
S'135_07'
p845
sg5
g6
sa(dp846
g2
F291.0
sg3
S'135_08'
p847
sg5
g6
sa(dp848
g2
F2150.0
sg3
S'135_09'
p849
sg5
g6
sa(dp850
g2
F2001.0
sg3
S'135_10'
p851
sg5
g6
sa(dp852
g2
F2446.0
sg3
S'135_11'
p853
sg5
g6
sa(dp854
g2
F872.0
sg3
S'136_01'
p855
sg5
g6
sa(dp856
g2
F860.0
sg3
S'136_02'
p857
sg5
g6
sa(dp858
g2
F1195.0
sg3
S'136_03'
p859
sg5
g6
sa(dp860
g2
F1268.0
sg3
S'136_04'
p861
sg5
g6
sa(dp862
g2
F1022.0
sg3
S'136_05'
p863
sg5
g6
sa(dp864
g2
F943.0
sg3
S'136_06'
p865
sg5
g6
sa(dp866
g2
F1107.0
sg3
S'136_07'
p867
sg5
g6
sa(dp868
g2
F1332.0
sg3
S'136_08'
p869
sg5
g6
sa(dp870
g2
F1130.0
sg3
S'136_09'
p871
sg5
g6
sa(dp872
g2
F1337.0
sg3
S'136_10'
p873
sg5
g6
sa(dp874
g2
F1438.0
sg3
S'136_11'
p875
sg5
g6
sa(dp876
g2
F1307.0
sg3
S'136_12'
p877
sg5
g6
sa(dp878
g2
F1252.0
sg3
S'136_13'
p879
sg5
g6
sa(dp880
g2
F1065.0
sg3
S'136_14'
p881
sg5
g6
sa(dp882
g2
F1350.0
sg3
S'136_15'
p883
sg5
g6
sa(dp884
g2
F1259.0
sg3
S'136_16'
p885
sg5
g6
sa(dp886
g2
F2120.0
sg3
S'136_17'
p887
sg5
g6
sa(dp888
g2
F1492.0
sg3
S'136_18'
p889
sg5
g6
sa(dp890
g2
F993.0
sg3
S'136_20'
p891
sg5
g6
sa(dp892
g2
F601.0
sg3
S'136_21'
p893
sg5
g6
sa(dp894
g2
F836.0
sg3
S'136_22'
p895
sg5
g6
sa(dp896
g2
F742.0
sg3
S'136_23'
p897
sg5
g6
sa(dp898
g2
F1075.0
sg3
S'136_24'
p899
sg5
g6
sa(dp900
g2
F1789.0
sg3
S'136_25'
p901
sg5
g6
sa(dp902
g2
F1422.0
sg3
S'136_26'
p903
sg5
g6
sa(dp904
g2
F1087.0
sg3
S'136_27'
p905
sg5
g6
sa(dp906
g2
F1114.0
sg3
S'136_28'
p907
sg5
g6
sa(dp908
g2
F1182.0
sg3
S'136_29'
p909
sg5
g6
sa(dp910
g2
F1272.0
sg3
S'136_30'
p911
sg5
g6
sa(dp912
g2
F1436.0
sg3
S'136_31'
p913
sg5
g6
sa(dp914
g2
F1443.0
sg3
S'136_32'
p915
sg5
g6
sa(dp916
g2
F986.0
sg3
S'136_33'
p917
sg5
g6
sa(dp918
g2
F2163.0
sg3
S'137_01'
p919
sg5
g6
sa(dp920
g2
F2167.0
sg3
S'137_02'
p921
sg5
g6
sa(dp922
g2
F6541.0
sg3
S'137_03'
p923
sg5
g6
sa(dp924
g2
F1937.0
sg3
S'137_04'
p925
sg5
g6
sa(dp926
g2
F1759.0
sg3
S'137_05'
p927
sg5
g6
sa(dp928
g2
F1629.0
sg3
S'137_06'
p929
sg5
g6
sa(dp930
g2
F4775.0
sg3
S'137_07'
p931
sg5
g6
sa(dp932
g2
F1938.0
sg3
S'137_08'
p933
sg5
g6
sa(dp934
g2
F2470.0
sg3
S'137_09'
p935
sg5
g6
sa(dp936
g2
F2246.0
sg3
S'137_10'
p937
sg5
g6
sa(dp938
g2
F4930.0
sg3
S'137_11'
p939
sg5
g6
sa(dp940
g2
F1969.0
sg3
S'137_12'
p941
sg5
g6
sa(dp942
g2
F2963.0
sg3
S'137_13'
p943
sg5
g6
sa(dp944
g2
F2264.0
sg3
S'137_14'
p945
sg5
g6
sa(dp946
g2
F5382.0
sg3
S'137_15'
p947
sg5
g6
sa(dp948
g2
F1532.0
sg3
S'137_16'
p949
sg5
g6
sa(dp950
g2
F1948.0
sg3
S'137_17'
p951
sg5
g6
sa(dp952
g2
F1395.0
sg3
S'137_18'
p953
sg5
g6
sa(dp954
g2
F5321.0
sg3
S'137_19'
p955
sg5
g6
sa(dp956
g2
F1603.0
sg3
S'137_20'
p957
sg5
g6
sa(dp958
g2
F1914.0
sg3
S'137_21'
p959
sg5
g6
sa(dp960
g2
F1642.0
sg3
S'137_22'
p961
sg5
g6
sa(dp962
g2
F4548.0
sg3
S'137_23'
p963
sg5
g6
sa(dp964
g2
F1193.0
sg3
S'137_24'
p965
sg5
g6
sa(dp966
g2
F155.0
sg3
S'137_25'
p967
sg5
g6
sa(dp968
g2
F1574.0
sg3
S'137_26'
p969
sg5
g6
sa(dp970
g2
F1161.0
sg3
S'137_27'
p971
sg5
g6
sa(dp972
g2
F3722.0
sg3
S'137_28'
p973
sg5
g6
sa(dp974
g2
F1128.0
sg3
S'137_29'
p975
sg5
g6
sa(dp976
g2
F3516.0
sg3
S'137_30'
p977
sg5
g6
sa(dp978
g2
F3368.0
sg3
S'137_31'
p979
sg5
g6
sa(dp980
g2
F5018.0
sg3
S'137_32'
p981
sg5
g6
sa(dp982
g2
F3064.0
sg3
S'137_33'
p983
sg5
g6
sa(dp984
g2
F896.0
sg3
S'137_34'
p985
sg5
g6
sa(dp986
g2
F2492.0
sg3
S'137_35'
p987
sg5
g6
sa(dp988
g2
F2556.0
sg3
S'137_36'
p989
sg5
g6
sa(dp990
g2
F5117.0
sg3
S'137_37'
p991
sg5
g6
sa(dp992
g2
F2019.0
sg3
S'137_38'
p993
sg5
g6
sa(dp994
g2
F2934.0
sg3
S'137_39'
p995
sg5
g6
sa(dp996
g2
F2038.0
sg3
S'137_40'
p997
sg5
g6
sa(dp998
g2
F5194.0
sg3
S'137_41'
p999
sg5
g6
sa(dp1000
g2
F2182.0
sg3
S'137_42'
p1001
sg5
g6
sa(dp1002
g2
F806.0
sg3
S'138_01'
p1003
sg5
g53
sa(dp1004
g2
F779.0
sg3
S'138_02'
p1005
sg5
g53
sa(dp1006
g2
F680.0
sg3
S'138_03'
p1007
sg5
g53
sa(dp1008
g2
F701.0
sg3
S'138_04'
p1009
sg5
g53
sa(dp1010
g2
F371.0
sg3
S'138_05'
p1011
sg5
g53
sa(dp1012
g2
F398.0
sg3
S'138_06'
p1013
sg5
g53
sa(dp1014
g2
F385.0
sg3
S'138_07'
p1015
sg5
g53
sa(dp1016
g2
F401.0
sg3
S'138_08'
p1017
sg5
g53
sa(dp1018
g2
F427.0
sg3
S'138_09'
p1019
sg5
g53
sa(dp1020
g2
F437.0
sg3
S'138_10'
p1021
sg5
g53
sa(dp1022
g2
F442.0
sg3
S'138_11'
p1023
sg5
g53
sa(dp1024
g2
F325.0
sg3
S'138_12'
p1025
sg5
g53
sa(dp1026
g2
F432.0
sg3
S'138_13'
p1027
sg5
g53
sa(dp1028
g2
F420.0
sg3
S'138_14'
p1029
sg5
g53
sa(dp1030
g2
F413.0
sg3
S'138_15'
p1031
sg5
g53
sa(dp1032
g2
F428.0
sg3
S'138_16'
p1033
sg5
g53
sa(dp1034
g2
F440.0
sg3
S'138_17'
p1035
sg5
g53
sa(dp1036
g2
F387.0
sg3
S'138_18'
p1037
sg5
g53
sa(dp1038
g2
F460.0
sg3
S'138_19'
p1039
sg5
g53
sa(dp1040
g2
F450.0
sg3
S'138_20'
p1041
sg5
g53
sa(dp1042
g2
F395.0
sg3
S'138_21'
p1043
sg5
g53
sa(dp1044
g2
F386.0
sg3
S'138_22'
p1045
sg5
g53
sa(dp1046
g2
F459.0
sg3
S'138_23'
p1047
sg5
g53
sa(dp1048
g2
F503.0
sg3
S'138_24'
p1049
sg5
g53
sa(dp1050
g2
F357.0
sg3
S'138_25'
p1051
sg5
g53
sa(dp1052
g2
F948.0
sg3
S'138_26'
p1053
sg5
g53
sa(dp1054
g2
F938.0
sg3
S'138_27'
p1055
sg5
g53
sa(dp1056
g2
F958.0
sg3
S'138_28'
p1057
sg5
g53
sa(dp1058
g2
F815.0
sg3
S'138_29'
p1059
sg5
g53
sa(dp1060
g2
F1086.0
sg3
S'138_30'
p1061
sg5
g53
sa(dp1062
g2
F909.0
sg3
S'138_32'
p1063
sg5
g53
sa(dp1064
g2
F1045.0
sg3
S'138_33'
p1065
sg5
g53
sa(dp1066
g2
F923.0
sg3
S'138_34'
p1067
sg5
g53
sa(dp1068
g2
F909.0
sg3
S'138_35'
p1069
sg5
g53
sa(dp1070
g2
F1079.0
sg3
S'138_36'
p1071
sg5
g53
sa(dp1072
g2
F809.0
sg3
S'138_37'
p1073
sg5
g53
sa(dp1074
g2
F965.0
sg3
S'138_38'
p1075
sg5
g53
sa(dp1076
g2
F877.0
sg3
S'138_39'
p1077
sg5
g53
sa(dp1078
g2
F819.0
sg3
S'138_40'
p1079
sg5
g53
sa(dp1080
g2
F784.0
sg3
S'138_41'
p1081
sg5
g53
sa(dp1082
g2
F1010.0
sg3
S'138_44'
p1083
sg5
g53
sa(dp1084
g2
F316.0
sg3
S'138_46'
p1085
sg5
g53
sa(dp1086
g2
F683.0
sg3
S'138_47'
p1087
sg5
g53
sa(dp1088
g2
F630.0
sg3
S'138_48'
p1089
sg5
g53
sa(dp1090
g2
F703.0
sg3
S'138_51'
p1091
sg5
g53
sa(dp1092
g2
F870.0
sg3
S'138_52'
p1093
sg5
g53
sa(dp1094
g2
F755.0
sg3
S'138_53'
p1095
sg5
g53
sa(dp1096
g2
F396.0
sg3
S'138_55'
p1097
sg5
g53
sa(dp1098
g2
F439.0
sg3
S'13_13'
p1099
sg5
g53
sa(dp1100
g2
F4840.0
sg3
S'13_17'
p1101
sg5
g53
sa(dp1102
g2
F3028.0
sg3
S'13_26'
p1103
sg5
g53
sa(dp1104
g2
F1379.0
sg3
S'13_36'
p1105
sg5
g53
sa(dp1106
g2
F763.0
sg3
S'141_20'
p1107
sg5
g6
sa(dp1108
g2
F100.0
sg3
S'143_01'
p1109
sg5
g6
sa(dp1110
g2
F208.0
sg3
S'143_02'
p1111
sg5
g6
sa(dp1112
g2
F239.0
sg3
S'143_03'
p1113
sg5
g6
sa(dp1114
g2
F1085.0
sg3
S'143_04'
p1115
sg5
g6
sa(dp1116
g2
F338.0
sg3
S'143_05'
p1117
sg5
g6
sa(dp1118
g2
F393.0
sg3
S'143_06'
p1119
sg5
g6
sa(dp1120
g2
F557.0
sg3
S'143_07'
p1121
sg5
g6
sa(dp1122
g2
F387.0
sg3
S'143_08'
p1123
sg5
g6
sa(dp1124
g2
F545.0
sg3
S'143_09'
p1125
sg5
g6
sa(dp1126
g2
F575.0
sg3
S'143_10'
p1127
sg5
g6
sa(dp1128
g2
F657.0
sg3
S'143_11'
p1129
sg5
g6
sa(dp1130
g2
F590.0
sg3
S'143_12'
p1131
sg5
g6
sa(dp1132
g2
F581.0
sg3
S'143_13'
p1133
sg5
g6
sa(dp1134
g2
F725.0
sg3
S'143_14'
p1135
sg5
g6
sa(dp1136
g2
F708.0
sg3
S'143_15'
p1137
sg5
g6
sa(dp1138
g2
F611.0
sg3
S'143_16'
p1139
sg5
g6
sa(dp1140
g2
F632.0
sg3
S'143_17'
p1141
sg5
g6
sa(dp1142
g2
F752.0
sg3
S'143_18'
p1143
sg5
g6
sa(dp1144
g2
F839.0
sg3
S'143_19'
p1145
sg5
g6
sa(dp1146
g2
F651.0
sg3
S'143_20'
p1147
sg5
g6
sa(dp1148
g2
F2152.0
sg3
S'143_21'
p1149
sg5
g6
sa(dp1150
g2
F1091.0
sg3
S'143_22'
p1151
sg5
g6
sa(dp1152
g2
F814.0
sg3
S'143_23'
p1153
sg5
g6
sa(dp1154
g2
F1005.0
sg3
S'143_24'
p1155
sg5
g6
sa(dp1156
g2
F658.0
sg3
S'143_25'
p1157
sg5
g6
sa(dp1158
g2
F635.0
sg3
S'143_26'
p1159
sg5
g6
sa(dp1160
g2
F704.0
sg3
S'143_27'
p1161
sg5
g6
sa(dp1162
g2
F643.0
sg3
S'143_28'
p1163
sg5
g6
sa(dp1164
g2
F1080.0
sg3
S'143_29'
p1165
sg5
g6
sa(dp1166
g2
F370.0
sg3
S'143_30'
p1167
sg5
g6
sa(dp1168
g2
F423.0
sg3
S'143_31'
p1169
sg5
g6
sa(dp1170
g2
F780.0
sg3
S'143_32'
p1171
sg5
g6
sa(dp1172
g2
F361.0
sg3
S'143_33'
p1173
sg5
g6
sa(dp1174
g2
F783.0
sg3
S'143_34'
p1175
sg5
g6
sa(dp1176
g2
F1279.0
sg3
S'143_35'
p1177
sg5
g6
sa(dp1178
g2
F761.0
sg3
S'143_36'
p1179
sg5
g6
sa(dp1180
g2
F551.0
sg3
S'143_37'
p1181
sg5
g6
sa(dp1182
g2
F1317.0
sg3
S'143_38'
p1183
sg5
g6
sa(dp1184
g2
F1083.0
sg3
S'143_39'
p1185
sg5
g6
sa(dp1186
g2
F966.0
sg3
S'143_40'
p1187
sg5
g6
sa(dp1188
g2
F1167.0
sg3
S'143_41'
p1189
sg5
g6
sa(dp1190
g2
F537.0
sg3
S'143_42'
p1191
sg5
g6
sa(dp1192
g2
F2459.0
sg3
S'144_01'
p1193
sg5
g6
sa(dp1194
g2
F2324.0
sg3
S'144_02'
p1195
sg5
g6
sa(dp1196
g2
F4479.0
sg3
S'144_03'
p1197
sg5
g6
sa(dp1198
g2
F3874.0
sg3
S'144_04'
p1199
sg5
g6
sa(dp1200
g2
F2786.0
sg3
S'144_05'
p1201
sg5
g6
sa(dp1202
g2
F3633.0
sg3
S'144_06'
p1203
sg5
g6
sa(dp1204
g2
F2448.0
sg3
S'144_07'
p1205
sg5
g6
sa(dp1206
g2
F3001.0
sg3
S'144_08'
p1207
sg5
g6
sa(dp1208
g2
F3382.0
sg3
S'144_09'
p1209
sg5
g6
sa(dp1210
g2
F3498.0
sg3
S'144_10'
p1211
sg5
g6
sa(dp1212
g2
F3429.0
sg3
S'144_11'
p1213
sg5
g6
sa(dp1214
g2
F3319.0
sg3
S'144_12'
p1215
sg5
g6
sa(dp1216
g2
F1946.0
sg3
S'144_13'
p1217
sg5
g6
sa(dp1218
g2
F2055.0
sg3
S'144_14'
p1219
sg5
g6
sa(dp1220
g2
F3302.0
sg3
S'144_15'
p1221
sg5
g6
sa(dp1222
g2
F3088.0
sg3
S'144_16'
p1223
sg5
g6
sa(dp1224
g2
F2820.0
sg3
S'144_17'
p1225
sg5
g6
sa(dp1226
g2
F3096.0
sg3
S'144_18'
p1227
sg5
g6
sa(dp1228
g2
F347.0
sg3
S'144_19'
p1229
sg5
g6
sa(dp1230
g2
F2270.0
sg3
S'144_20'
p1231
sg5
g6
sa(dp1232
g2
F1930.0
sg3
S'144_21'
p1233
sg5
g6
sa(dp1234
g2
F3339.0
sg3
S'144_22'
p1235
sg5
g6
sa(dp1236
g2
F3409.0
sg3
S'144_23'
p1237
sg5
g6
sa(dp1238
g2
F4701.0
sg3
S'144_24'
p1239
sg5
g6
sa(dp1240
g2
F3335.0
sg3
S'144_25'
p1241
sg5
g6
sa(dp1242
g2
F3347.0
sg3
S'144_26'
p1243
sg5
g6
sa(dp1244
g2
F2655.0
sg3
S'144_27'
p1245
sg5
g6
sa(dp1246
g2
F2286.0
sg3
S'144_28'
p1247
sg5
g6
sa(dp1248
g2
F3083.0
sg3
S'144_29'
p1249
sg5
g6
sa(dp1250
g2
F4955.0
sg3
S'144_30'
p1251
sg5
g6
sa(dp1252
g2
F4833.0
sg3
S'144_31'
p1253
sg5
g6
sa(dp1254
g2
F5202.0
sg3
S'144_32'
p1255
sg5
g6
sa(dp1256
g2
F5014.0
sg3
S'144_33'
p1257
sg5
g6
sa(dp1258
g2
F4688.0
sg3
S'144_34'
p1259
sg5
g6
sa(dp1260
g2
F5524.0
sg3
S'15_01'
p1261
sg5
g6
sa(dp1262
g2
F21965.0
sg3
S'15_02'
p1263
sg5
g6
sa(dp1264
g2
F12550.0
sg3
S'15_03'
p1265
sg5
g6
sa(dp1266
g2
F22549.0
sg3
S'15_04'
p1267
sg5
g6
sa(dp1268
g2
F22948.0
sg3
S'15_05'
p1269
sg5
g6
sa(dp1270
g2
F3604.0
sg3
S'15_06'
p1271
sg5
g6
sa(dp1272
g2
F5498.0
sg3
S'15_07'
p1273
sg5
g6
sa(dp1274
g2
F3859.0
sg3
S'15_08'
p1275
sg5
g6
sa(dp1276
g2
F7875.0
sg3
S'15_09'
p1277
sg5
g6
sa(dp1278
g2
F2781.0
sg3
S'15_10'
p1279
sg5
g6
sa(dp1280
g2
F9394.0
sg3
S'15_11'
p1281
sg5
g6
sa(dp1282
g2
F9086.0
sg3
S'15_12'
p1283
sg5
g6
sa(dp1284
g2
F9330.0
sg3
S'15_13'
p1285
sg5
g6
sa(dp1286
g2
F8986.0
sg3
S'15_14'
p1287
sg5
g6
sa(dp1288
g2
F347.0
sg3
S'16_34'
p1289
sg5
g6
sa(dp1290
g2
F162.0
sg3
S'16_35'
p1291
sg5
g6
sa(dp1292
g2
F6305.0
sg3
S'17_01'
p1293
sg5
g6
sa(dp1294
g2
F6362.0
sg3
S'17_02'
p1295
sg5
g6
sa(dp1296
g2
F6353.0
sg3
S'17_03'
p1297
sg5
g6
sa(dp1298
g2
F6383.0
sg3
S'17_04'
p1299
sg5
g6
sa(dp1300
g2
F6339.0
sg3
S'17_05'
p1301
sg5
g6
sa(dp1302
g2
F6200.0
sg3
S'17_06'
p1303
sg5
g6
sa(dp1304
g2
F6426.0
sg3
S'17_07'
p1305
sg5
g6
sa(dp1306
g2
F6179.0
sg3
S'17_08'
p1307
sg5
g6
sa(dp1308
g2
F6079.0
sg3
S'17_09'
p1309
sg5
g6
sa(dp1310
g2
F2783.0
sg3
S'17_10'
p1311
sg5
g6
sa(dp1312
g2
F303.0
sg3
S'18_01'
p1313
sg5
g6
sa(dp1314
g2
F301.0
sg3
S'18_02'
p1315
sg5
g6
sa(dp1316
g2
F592.0
sg3
S'18_03'
p1317
sg5
g6
sa(dp1318
g2
F405.0
sg3
S'18_04'
p1319
sg5
g6
sa(dp1320
g2
F438.0
sg3
S'18_05'
p1321
sg5
g6
sa(dp1322
g2
F407.0
sg3
S'18_06'
p1323
sg5
g6
sa(dp1324
g2
F291.0
sg3
S'18_07'
p1325
sg5
g6
sa(dp1326
g2
F2086.0
sg3
S'18_08'
p1327
sg5
g6
sa(dp1328
g2
F232.0
sg3
S'18_09'
p1329
sg5
g6
sa(dp1330
g2
F1805.0
sg3
S'18_10'
p1331
sg5
g6
sa(dp1332
g2
F1911.0
sg3
S'18_11'
p1333
sg5
g6
sa(dp1334
g2
F1253.0
sg3
S'18_12'
p1335
sg5
g6
sa(dp1336
g2
F466.0
sg3
S'18_13'
p1337
sg5
g6
sa(dp1338
g2
F332.0
sg3
S'18_14'
p1339
sg5
g6
sa(dp1340
g2
F1536.0
sg3
S'18_15'
p1341
sg5
g6
sa(dp1342
g2
F303.0
sg3
S'19_01'
p1343
sg5
g6
sa(dp1344
g2
F301.0
sg3
S'19_02'
p1345
sg5
g6
sa(dp1346
g2
F592.0
sg3
S'19_03'
p1347
sg5
g6
sa(dp1348
g2
F405.0
sg3
S'19_04'
p1349
sg5
g6
sa(dp1350
g2
F438.0
sg3
S'19_05'
p1351
sg5
g6
sa(dp1352
g2
F407.0
sg3
S'19_06'
p1353
sg5
g6
sa(dp1354
g2
F291.0
sg3
S'19_07'
p1355
sg5
g6
sa(dp1356
g2
F2086.0
sg3
S'19_08'
p1357
sg5
g6
sa(dp1358
g2
F232.0
sg3
S'19_09'
p1359
sg5
g6
sa(dp1360
g2
F1805.0
sg3
S'19_10'
p1361
sg5
g6
sa(dp1362
g2
F1911.0
sg3
S'19_11'
p1363
sg5
g6
sa(dp1364
g2
F1253.0
sg3
S'19_12'
p1365
sg5
g6
sa(dp1366
g2
F466.0
sg3
S'19_13'
p1367
sg5
g6
sa(dp1368
g2
F332.0
sg3
S'19_14'
p1369
sg5
g6
sa(dp1370
g2
F1536.0
sg3
S'19_15'
p1371
sg5
g6
sa(dp1372
g2
F2072.0
sg3
S'24_01'
p1373
sg5
g53
sa(dp1374
g2
F1618.0
sg3
S'25_01'
p1375
sg5
g6
sa(dp1376
g2
F884.0
sg3
S'26_01'
p1377
sg5
g6
sa(dp1378
g2
F6058.0
sg3
S'26_02'
p1379
sg5
g6
sa(dp1380
g2
F2238.0
sg3
S'26_03'
p1381
sg5
g6
sa(dp1382
g2
F2165.0
sg3
S'26_04'
p1383
sg5
g6
sa(dp1384
g2
F3635.0
sg3
S'26_05'
p1385
sg5
g6
sa(dp1386
g2
F3602.0
sg3
S'26_06'
p1387
sg5
g6
sa(dp1388
g2
F7757.0
sg3
S'26_07'
p1389
sg5
g6
sa(dp1390
g2
F7670.0
sg3
S'26_08'
p1391
sg5
g6
sa(dp1392
g2
F740.0
sg3
S'26_09'
p1393
sg5
g6
sa(dp1394
g2
F697.0
sg3
S'26_10'
p1395
sg5
g6
sa(dp1396
g2
F549.0
sg3
S'26_11'
p1397
sg5
g6
sa(dp1398
g2
F1033.0
sg3
S'27_01'
p1399
sg5
g53
sa(dp1400
g2
F3565.0
sg3
S'27_02'
p1401
sg5
g53
sa(dp1402
g2
F2150.0
sg3
S'27_03'
p1403
sg5
g53
sa(dp1404
g2
F3644.0
sg3
S'27_04'
p1405
sg5
g53
sa(dp1406
g2
F7722.0
sg3
S'27_05'
p1407
sg5
g53
sa(dp1408
g2
F2870.0
sg3
S'27_06'
p1409
sg5
g53
sa(dp1410
g2
F1791.0
sg3
S'27_07'
p1411
sg5
g53
sa(dp1412
g2
F3511.0
sg3
S'27_08'
p1413
sg5
g53
sa(dp1414
g2
F3775.0
sg3
S'27_09'
p1415
sg5
g53
sa(dp1416
g2
F7798.0
sg3
S'27_10'
p1417
sg5
g53
sa(dp1418
g2
F1937.0
sg3
S'27_11'
p1419
sg5
g53
sa(dp1420
g2
F3129.0
sg3
S'28_01'
p1421
sg5
g6
sa(dp1422
g2
F2055.0
sg3
S'28_02'
p1423
sg5
g6
sa(dp1424
g2
F3772.0
sg3
S'28_03'
p1425
sg5
g6
sa(dp1426
g2
F7898.0
sg3
S'28_04'
p1427
sg5
g6
sa(dp1428
g2
F3243.0
sg3
S'28_05'
p1429
sg5
g6
sa(dp1430
g2
F2213.0
sg3
S'28_06'
p1431
sg5
g6
sa(dp1432
g2
F3658.0
sg3
S'28_07'
p1433
sg5
g6
sa(dp1434
g2
F7940.0
sg3
S'28_08'
p1435
sg5
g6
sa(dp1436
g2
F1713.0
sg3
S'28_09'
p1437
sg5
g6
sa(dp1438
g2
F2075.0
sg3
S'28_10'
p1439
sg5
g6
sa(dp1440
g2
F6616.0
sg3
S'28_11'
p1441
sg5
g6
sa(dp1442
g2
F5147.0
sg3
S'28_12'
p1443
sg5
g6
sa(dp1444
g2
F5889.0
sg3
S'28_13'
p1445
sg5
g6
sa(dp1446
g2
F3742.0
sg3
S'28_14'
p1447
sg5
g6
sa(dp1448
g2
F3443.0
sg3
S'28_15'
p1449
sg5
g6
sa(dp1450
g2
F5601.0
sg3
S'28_16'
p1451
sg5
g6
sa(dp1452
g2
F5338.0
sg3
S'28_17'
p1453
sg5
g6
sa(dp1454
g2
F4246.0
sg3
S'28_18'
p1455
sg5
g6
sa(dp1456
g2
F4522.0
sg3
S'28_19'
p1457
sg5
g6
sa(dp1458
g2
F4174.0
sg3
S'30_03'
p1459
sg5
g53
sa(dp1460
g2
F2575.0
sg3
S'30_14'
p1461
sg5
g53
sa(dp1462
g2
F3419.0
sg3
S'30_20'
p1463
sg5
g53
sa(dp1464
g2
F3286.0
sg3
S'30_22'
p1465
sg5
g53
sa(dp1466
g2
F482.0
sg3
S'32_01'
p1467
sg5
g6
sa(dp1468
g2
F434.0
sg3
S'32_02'
p1469
sg5
g6
sa(dp1470
g2
F3238.0
sg3
S'32_03'
p1471
sg5
g6
sa(dp1472
g2
F2310.0
sg3
S'32_04'
p1473
sg5
g6
sa(dp1474
g2
F3648.0
sg3
S'32_05'
p1475
sg5
g6
sa(dp1476
g2
F7851.0
sg3
S'32_06'
p1477
sg5
g6
sa(dp1478
g2
F3119.0
sg3
S'32_07'
p1479
sg5
g6
sa(dp1480
g2
F2240.0
sg3
S'32_08'
p1481
sg5
g6
sa(dp1482
g2
F7942.0
sg3
S'32_10'
p1483
sg5
g6
sa(dp1484
g2
F14684.0
sg3
S'32_11'
p1485
sg5
g6
sa(dp1486
g2
F14704.0
sg3
S'32_12'
p1487
sg5
g6
sa(dp1488
g2
F3627.0
sg3
S'32_15'
p1489
sg5
g6
sa(dp1490
g2
F4390.0
sg3
S'32_16'
p1491
sg5
g6
sa(dp1492
g2
F3312.0
sg3
S'32_17'
p1493
sg5
g6
sa(dp1494
g2
F3032.0
sg3
S'32_18'
p1495
sg5
g6
sa(dp1496
g2
F2311.0
sg3
S'32_19'
p1497
sg5
g6
sa(dp1498
g2
F3555.0
sg3
S'32_20'
p1499
sg5
g6
sa(dp1500
g2
F2038.0
sg3
S'32_21'
p1501
sg5
g6
sa(dp1502
g2
F358.0
sg3
S'35_01'
p1503
sg5
g6
sa(dp1504
g2
F406.0
sg3
S'35_02'
p1505
sg5
g6
sa(dp1506
g2
F406.0
sg3
S'35_15'
p1507
sg5
g6
sa(dp1508
g2
F443.0
sg3
S'35_16'
p1509
sg5
g6
sa(dp1510
g2
F167.0
sg3
S'35_17'
p1511
sg5
g6
sa(dp1512
g2
F175.0
sg3
S'35_18'
p1513
sg5
g6
sa(dp1514
g2
F160.0
sg3
S'35_19'
p1515
sg5
g6
sa(dp1516
g2
F163.0
sg3
S'35_20'
p1517
sg5
g6
sa(dp1518
g2
F161.0
sg3
S'35_21'
p1519
sg5
g6
sa(dp1520
g2
F167.0
sg3
S'35_22'
p1521
sg5
g6
sa(dp1522
g2
F162.0
sg3
S'35_23'
p1523
sg5
g6
sa(dp1524
g2
F150.0
sg3
S'35_24'
p1525
sg5
g6
sa(dp1526
g2
F165.0
sg3
S'35_25'
p1527
sg5
g6
sa(dp1528
g2
F138.0
sg3
S'35_26'
p1529
sg5
g6
sa(dp1530
g2
F9807.0
sg3
S'35_27'
p1531
sg5
g6
sa(dp1532
g2
F417.0
sg3
S'35_28'
p1533
sg5
g6
sa(dp1534
g2
F497.0
sg3
S'35_29'
p1535
sg5
g6
sa(dp1536
g2
F412.0
sg3
S'35_30'
p1537
sg5
g6
sa(dp1538
g2
F421.0
sg3
S'35_31'
p1539
sg5
g6
sa(dp1540
g2
F392.0
sg3
S'35_32'
p1541
sg5
g6
sa(dp1542
g2
F421.0
sg3
S'35_33'
p1543
sg5
g6
sa(dp1544
g2
F415.0
sg3
S'35_34'
p1545
sg5
g6
sa(dp1546
g2
F557.0
sg3
S'36_01'
p1547
sg5
g53
sa(dp1548
g2
F4273.0
sg3
S'36_02'
p1549
sg5
g53
sa(dp1550
g2
F3852.0
sg3
S'36_03'
p1551
sg5
g53
sa(dp1552
g2
F3726.0
sg3
S'36_04'
p1553
sg5
g53
sa(dp1554
g2
F4196.0
sg3
S'36_05'
p1555
sg5
g53
sa(dp1556
g2
F3896.0
sg3
S'36_06'
p1557
sg5
g53
sa(dp1558
g2
F3772.0
sg3
S'36_07'
p1559
sg5
g53
sa(dp1560
g2
F3714.0
sg3
S'36_08'
p1561
sg5
g53
sa(dp1562
g2
F3890.0
sg3
S'36_09'
p1563
sg5
g53
sa(dp1564
g2
F3832.0
sg3
S'36_10'
p1565
sg5
g53
sa(dp1566
g2
F4168.0
sg3
S'36_11'
p1567
sg5
g53
sa(dp1568
g2
F4585.0
sg3
S'36_12'
p1569
sg5
g53
sa(dp1570
g2
F4247.0
sg3
S'36_13'
p1571
sg5
g53
sa(dp1572
g2
F4146.0
sg3
S'36_14'
p1573
sg5
g53
sa(dp1574
g2
F4164.0
sg3
S'36_15'
p1575
sg5
g53
sa(dp1576
g2
F4395.0
sg3
S'36_16'
p1577
sg5
g53
sa(dp1578
g2
F4359.0
sg3
S'36_17'
p1579
sg5
g53
sa(dp1580
g2
F4304.0
sg3
S'36_18'
p1581
sg5
g53
sa(dp1582
g2
F4193.0
sg3
S'36_19'
p1583
sg5
g53
sa(dp1584
g2
F4090.0
sg3
S'36_20'
p1585
sg5
g53
sa(dp1586
g2
F4030.0
sg3
S'36_21'
p1587
sg5
g53
sa(dp1588
g2
F4312.0
sg3
S'36_22'
p1589
sg5
g53
sa(dp1590
g2
F4392.0
sg3
S'36_23'
p1591
sg5
g53
sa(dp1592
g2
F4153.0
sg3
S'36_24'
p1593
sg5
g53
sa(dp1594
g2
F4685.0
sg3
S'36_25'
p1595
sg5
g53
sa(dp1596
g2
F4237.0
sg3
S'36_26'
p1597
sg5
g53
sa(dp1598
g2
F4247.0
sg3
S'36_27'
p1599
sg5
g53
sa(dp1600
g2
F2391.0
sg3
S'36_28'
p1601
sg5
g53
sa(dp1602
g2
F4469.0
sg3
S'36_29'
p1603
sg5
g53
sa(dp1604
g2
F4414.0
sg3
S'36_30'
p1605
sg5
g53
sa(dp1606
g2
F3736.0
sg3
S'36_31'
p1607
sg5
g53
sa(dp1608
g2
F4468.0
sg3
S'36_32'
p1609
sg5
g53
sa(dp1610
g2
F4311.0
sg3
S'36_33'
p1611
sg5
g53
sa(dp1612
g2
F4328.0
sg3
S'36_34'
p1613
sg5
g53
sa(dp1614
g2
F4341.0
sg3
S'36_35'
p1615
sg5
g53
sa(dp1616
g2
F4792.0
sg3
S'36_36'
p1617
sg5
g53
sa(dp1618
g2
F4328.0
sg3
S'36_37'
p1619
sg5
g53
sa(dp1620
g2
F511.0
sg3
S'37_01'
p1621
sg5
g6
sa(dp1622
g2
F352.0
sg3
S'38_01'
p1623
sg5
g6
sa(dp1624
g2
F420.0
sg3
S'38_02'
p1625
sg5
g6
sa(dp1626
g2
F761.0
sg3
S'38_03'
p1627
sg5
g6
sa(dp1628
g2
F8631.0
sg3
S'38_04'
p1629
sg5
g6
sa(dp1630
g2
F378.0
sg3
S'39_01'
p1631
sg5
g53
sa(dp1632
g2
F400.0
sg3
S'39_02'
p1633
sg5
g53
sa(dp1634
g2
F407.0
sg3
S'39_03'
p1635
sg5
g53
sa(dp1636
g2
F410.0
sg3
S'39_04'
p1637
sg5
g53
sa(dp1638
g2
F400.0
sg3
S'39_05'
p1639
sg5
g53
sa(dp1640
g2
F368.0
sg3
S'39_06'
p1641
sg5
g53
sa(dp1642
g2
F367.0
sg3
S'39_07'
p1643
sg5
g53
sa(dp1644
g2
F350.0
sg3
S'39_08'
p1645
sg5
g53
sa(dp1646
g2
F395.0
sg3
S'39_09'
p1647
sg5
g53
sa(dp1648
g2
F391.0
sg3
S'39_10'
p1649
sg5
g53
sa(dp1650
g2
F894.0
sg3
S'39_11'
p1651
sg5
g53
sa(dp1652
g2
F427.0
sg3
S'39_12'
p1653
sg5
g53
sa(dp1654
g2
F378.0
sg3
S'39_13'
p1655
sg5
g53
sa(dp1656
g2
F399.0
sg3
S'39_14'
p1657
sg5
g53
sa(dp1658
g2
F4994.0
sg3
S'40_02'
p1659
sg5
g53
sa(dp1660
g2
F6188.0
sg3
S'40_03'
p1661
sg5
g53
sa(dp1662
g2
F5897.0
sg3
S'40_04'
p1663
sg5
g53
sa(dp1664
g2
F6085.0
sg3
S'40_05'
p1665
sg5
g53
sa(dp1666
g2
F6583.0
sg3
S'40_06'
p1667
sg5
g53
sa(dp1668
g2
F6882.0
sg3
S'40_07'
p1669
sg5
g53
sa(dp1670
g2
F6959.0
sg3
S'40_08'
p1671
sg5
g53
sa(dp1672
g2
F5167.0
sg3
S'40_09'
p1673
sg5
g53
sa(dp1674
g2
F6214.0
sg3
S'40_10'
p1675
sg5
g53
sa(dp1676
g2
F6020.0
sg3
S'40_11'
p1677
sg5
g53
sa(dp1678
g2
F8437.0
sg3
S'40_12'
p1679
sg5
g53
sa(dp1680
g2
F421.0
sg3
S'43_01'
p1681
sg5
g6
sa(dp1682
g2
F904.0
sg3
S'43_02'
p1683
sg5
g6
sa(dp1684
g2
F840.0
sg3
S'43_03'
p1685
sg5
g6
sa(dp1686
g2
F456.0
sg3
S'45_01'
p1687
sg5
g6
sa(dp1688
g2
F616.0
sg3
S'46_01'
p1689
sg5
g6
sa(dp1690
g2
F1921.0
sg3
S'54_01'
p1691
sg5
g6
sa(dp1692
g2
F3009.0
sg3
S'54_02'
p1693
sg5
g6
sa(dp1694
g2
F2772.0
sg3
S'54_03'
p1695
sg5
g6
sa(dp1696
g2
F4609.0
sg3
S'54_04'
p1697
sg5
g6
sa(dp1698
g2
F1067.0
sg3
S'54_05'
p1699
sg5
g6
sa(dp1700
g2
F7878.0
sg3
S'54_06'
p1701
sg5
g6
sa(dp1702
g2
F4010.0
sg3
S'54_07'
p1703
sg5
g6
sa(dp1704
g2
F1932.0
sg3
S'54_09'
p1705
sg5
g6
sa(dp1706
g2
F4711.0
sg3
S'54_10'
p1707
sg5
g6
sa(dp1708
g2
F3414.0
sg3
S'54_11'
p1709
sg5
g6
sa(dp1710
g2
F2293.0
sg3
S'54_12'
p1711
sg5
g6
sa(dp1712
g2
F1631.0
sg3
S'54_13'
p1713
sg5
g6
sa(dp1714
g2
F1628.0
sg3
S'54_14'
p1715
sg5
g6
sa(dp1716
g2
F4124.0
sg3
S'54_15'
p1717
sg5
g6
sa(dp1718
g2
F4122.0
sg3
S'54_16'
p1719
sg5
g6
sa(dp1720
g2
F2820.0
sg3
S'54_17'
p1721
sg5
g6
sa(dp1722
g2
F2024.0
sg3
S'54_18'
p1723
sg5
g6
sa(dp1724
g2
F4890.0
sg3
S'54_19'
p1725
sg5
g6
sa(dp1726
g2
F6196.0
sg3
S'54_20'
p1727
sg5
g6
sa(dp1728
g2
F6988.0
sg3
S'54_21'
p1729
sg5
g6
sa(dp1730
g2
F2534.0
sg3
S'54_22'
p1731
sg5
g6
sa(dp1732
g2
F4299.0
sg3
S'54_23'
p1733
sg5
g6
sa(dp1734
g2
F2687.0
sg3
S'54_24'
p1735
sg5
g6
sa(dp1736
g2
F4542.0
sg3
S'54_25'
p1737
sg5
g6
sa(dp1738
g2
F1961.0
sg3
S'54_26'
p1739
sg5
g6
sa(dp1740
g2
F3440.0
sg3
S'54_27'
p1741
sg5
g6
sa(dp1742
g2
F1806.0
sg3
S'55_01'
p1743
sg5
g6
sa(dp1744
g2
F2180.0
sg3
S'55_02'
p1745
sg5
g6
sa(dp1746
g2
F4530.0
sg3
S'55_03'
p1747
sg5
g6
sa(dp1748
g2
F530.0
sg3
S'55_04'
p1749
sg5
g6
sa(dp1750
g2
F2812.0
sg3
S'55_05'
p1751
sg5
g6
sa(dp1752
g2
F9275.0
sg3
S'55_06'
p1753
sg5
g6
sa(dp1754
g2
F4568.0
sg3
S'55_07'
p1755
sg5
g6
sa(dp1756
g2
F5340.0
sg3
S'55_08'
p1757
sg5
g6
sa(dp1758
g2
F4220.0
sg3
S'55_09'
p1759
sg5
g6
sa(dp1760
g2
F1362.0
sg3
S'55_10'
p1761
sg5
g6
sa(dp1762
g2
F4365.0
sg3
S'55_11'
p1763
sg5
g6
sa(dp1764
g2
F2075.0
sg3
S'55_12'
p1765
sg5
g6
sa(dp1766
g2
F9738.0
sg3
S'55_13'
p1767
sg5
g6
sa(dp1768
g2
F5202.0
sg3
S'55_14'
p1769
sg5
g6
sa(dp1770
g2
F9693.0
sg3
S'55_15'
p1771
sg5
g6
sa(dp1772
g2
F6082.0
sg3
S'55_16'
p1773
sg5
g6
sa(dp1774
g2
F6176.0
sg3
S'55_17'
p1775
sg5
g6
sa(dp1776
g2
F5387.0
sg3
S'55_18'
p1777
sg5
g6
sa(dp1778
g2
F4741.0
sg3
S'55_19'
p1779
sg5
g6
sa(dp1780
g2
F4598.0
sg3
S'55_20'
p1781
sg5
g6
sa(dp1782
g2
F3499.0
sg3
S'55_21'
p1783
sg5
g6
sa(dp1784
g2
F6541.0
sg3
S'55_22'
p1785
sg5
g6
sa(dp1786
g2
F5971.0
sg3
S'55_23'
p1787
sg5
g6
sa(dp1788
g2
F9522.0
sg3
S'55_24'
p1789
sg5
g6
sa(dp1790
g2
F3188.0
sg3
S'55_25'
p1791
sg5
g6
sa(dp1792
g2
F4103.0
sg3
S'55_26'
p1793
sg5
g6
sa(dp1794
g2
F5003.0
sg3
S'55_27'
p1795
sg5
g6
sa(dp1796
g2
F8309.0
sg3
S'55_28'
p1797
sg5
g6
sa(dp1798
g2
F1082.0
sg3
S'62_01'
p1799
sg5
g6
sa(dp1800
g2
F1040.0
sg3
S'62_02'
p1801
sg5
g6
sa(dp1802
g2
F1377.0
sg3
S'62_03'
p1803
sg5
g6
sa(dp1804
g2
F1353.0
sg3
S'62_04'
p1805
sg5
g6
sa(dp1806
g2
F1158.0
sg3
S'62_05'
p1807
sg5
g6
sa(dp1808
g2
F2650.0
sg3
S'62_06'
p1809
sg5
g6
sa(dp1810
g2
F1114.0
sg3
S'62_07'
p1811
sg5
g6
sa(dp1812
g2
F896.0
sg3
S'62_08'
p1813
sg5
g6
sa(dp1814
g2
F1138.0
sg3
S'62_09'
p1815
sg5
g6
sa(dp1816
g2
F2021.0
sg3
S'62_10'
p1817
sg5
g6
sa(dp1818
g2
F3707.0
sg3
S'62_11'
p1819
sg5
g6
sa(dp1820
g2
F985.0
sg3
S'62_12'
p1821
sg5
g6
sa(dp1822
g2
F1264.0
sg3
S'62_13'
p1823
sg5
g6
sa(dp1824
g2
F674.0
sg3
S'62_14'
p1825
sg5
g6
sa(dp1826
g2
F680.0
sg3
S'62_15'
p1827
sg5
g6
sa(dp1828
g2
F628.0
sg3
S'62_16'
p1829
sg5
g6
sa(dp1830
g2
F721.0
sg3
S'62_17'
p1831
sg5
g6
sa(dp1832
g2
F565.0
sg3
S'62_18'
p1833
sg5
g6
sa(dp1834
g2
F659.0
sg3
S'62_19'
p1835
sg5
g6
sa(dp1836
g2
F964.0
sg3
S'62_20'
p1837
sg5
g6
sa(dp1838
g2
F3449.0
sg3
S'62_21'
p1839
sg5
g6
sa(dp1840
g2
F1056.0
sg3
S'62_22'
p1841
sg5
g6
sa(dp1842
g2
F955.0
sg3
S'62_23'
p1843
sg5
g6
sa(dp1844
g2
F2886.0
sg3
S'62_24'
p1845
sg5
g6
sa(dp1846
g2
F1324.0
sg3
S'62_25'
p1847
sg5
g6
sa(dp1848
g2
F448.0
sg3
S'63_01'
p1849
sg5
g6
sa(dp1850
g2
F493.0
sg3
S'63_02'
p1851
sg5
g6
sa(dp1852
g2
F444.0
sg3
S'63_03'
p1853
sg5
g6
sa(dp1854
g2
F412.0
sg3
S'63_04'
p1855
sg5
g6
sa(dp1856
g2
F387.0
sg3
S'63_05'
p1857
sg5
g6
sa(dp1858
g2
F529.0
sg3
S'63_06'
p1859
sg5
g6
sa(dp1860
g2
F376.0
sg3
S'63_07'
p1861
sg5
g6
sa(dp1862
g2
F364.0
sg3
S'63_08'
p1863
sg5
g6
sa(dp1864
g2
F452.0
sg3
S'63_09'
p1865
sg5
g6
sa(dp1866
g2
F562.0
sg3
S'63_10'
p1867
sg5
g6
sa(dp1868
g2
F593.0
sg3
S'63_11'
p1869
sg5
g6
sa(dp1870
g2
F504.0
sg3
S'63_12'
p1871
sg5
g6
sa(dp1872
g2
F437.0
sg3
S'63_13'
p1873
sg5
g6
sa(dp1874
g2
F559.0
sg3
S'63_14'
p1875
sg5
g6
sa(dp1876
g2
F415.0
sg3
S'63_15'
p1877
sg5
g6
sa(dp1878
g2
F621.0
sg3
S'63_16'
p1879
sg5
g6
sa(dp1880
g2
F534.0
sg3
S'63_17'
p1881
sg5
g6
sa(dp1882
g2
F475.0
sg3
S'63_18'
p1883
sg5
g6
sa(dp1884
g2
F586.0
sg3
S'63_20'
p1885
sg5
g6
sa(dp1886
g2
F437.0
sg3
S'63_21'
p1887
sg5
g6
sa(dp1888
g2
F527.0
sg3
S'63_22'
p1889
sg5
g6
sa(dp1890
g2
F521.0
sg3
S'63_23'
p1891
sg5
g6
sa(dp1892
g2
F578.0
sg3
S'63_24'
p1893
sg5
g6
sa(dp1894
g2
F615.0
sg3
S'63_25'
p1895
sg5
g6
sa(dp1896
g2
F562.0
sg3
S'63_26'
p1897
sg5
g6
sa(dp1898
g2
F569.0
sg3
S'63_27'
p1899
sg5
g6
sa(dp1900
g2
F517.0
sg3
S'63_28'
p1901
sg5
g6
sa(dp1902
g2
F579.0
sg3
S'63_29'
p1903
sg5
g6
sa(dp1904
g2
F616.0
sg3
S'63_30'
p1905
sg5
g6
sa(dp1906
g2
F715.0
sg3
S'70_01'
p1907
sg5
g53
sa(dp1908
g2
F759.0
sg3
S'70_02'
p1909
sg5
g53
sa(dp1910
g2
F1853.0
sg3
S'70_03'
p1911
sg5
g53
sa(dp1912
g2
F1669.0
sg3
S'70_04'
p1913
sg5
g53
sa(dp1914
g2
F904.0
sg3
S'70_05'
p1915
sg5
g53
sa(dp1916
g2
F835.0
sg3
S'70_06'
p1917
sg5
g53
sa(dp1918
g2
F854.0
sg3
S'70_08'
p1919
sg5
g53
sa(dp1920
g2
F840.0
sg3
S'70_09'
p1921
sg5
g53
sa(dp1922
g2
F799.0
sg3
S'70_10'
p1923
sg5
g53
sa(dp1924
g2
F715.0
sg3
S'73_01'
p1925
sg5
g6
sa(dp1926
g2
F759.0
sg3
S'73_02'
p1927
sg5
g6
sa(dp1928
g2
F1853.0
sg3
S'73_03'
p1929
sg5
g6
sa(dp1930
g2
F1669.0
sg3
S'73_04'
p1931
sg5
g6
sa(dp1932
g2
F904.0
sg3
S'73_05'
p1933
sg5
g6
sa(dp1934
g2
F835.0
sg3
S'73_06'
p1935
sg5
g6
sa(dp1936
g2
F854.0
sg3
S'73_08'
p1937
sg5
g6
sa(dp1938
g2
F840.0
sg3
S'73_09'
p1939
sg5
g6
sa(dp1940
g2
F799.0
sg3
S'73_10'
p1941
sg5
g6
sa(dp1942
g2
F378.0
sg3
S'75_01'
p1943
sg5
g53
sa(dp1944
g2
F239.0
sg3
S'75_02'
p1945
sg5
g53
sa(dp1946
g2
F207.0
sg3
S'75_03'
p1947
sg5
g53
sa(dp1948
g2
F290.0
sg3
S'75_04'
p1949
sg5
g53
sa(dp1950
g2
F298.0
sg3
S'75_05'
p1951
sg5
g53
sa(dp1952
g2
F729.0
sg3
S'75_06'
p1953
sg5
g53
sa(dp1954
g2
F1119.0
sg3
S'75_07'
p1955
sg5
g53
sa(dp1956
g2
F1115.0
sg3
S'75_08'
p1957
sg5
g53
sa(dp1958
g2
F372.0
sg3
S'75_09'
p1959
sg5
g53
sa(dp1960
g2
F275.0
sg3
S'75_10'
p1961
sg5
g53
sa(dp1962
g2
F176.0
sg3
S'75_11'
p1963
sg5
g53
sa(dp1964
g2
F462.0
sg3
S'75_12'
p1965
sg5
g53
sa(dp1966
g2
F373.0
sg3
S'75_13'
p1967
sg5
g53
sa(dp1968
g2
F446.0
sg3
S'75_14'
p1969
sg5
g53
sa(dp1970
g2
F1745.0
sg3
S'75_15'
p1971
sg5
g53
sa(dp1972
g2
F343.0
sg3
S'75_16'
p1973
sg5
g53
sa(dp1974
g2
F324.0
sg3
S'75_17'
p1975
sg5
g53
sa(dp1976
g2
F303.0
sg3
S'75_18'
p1977
sg5
g53
sa(dp1978
g2
F768.0
sg3
S'75_19'
p1979
sg5
g53
sa(dp1980
g2
F496.0
sg3
S'75_20'
p1981
sg5
g53
sa(dp1982
g2
F930.0
sg3
S'76_01'
p1983
sg5
g6
sa(dp1984
g2
F1164.0
sg3
S'76_02'
p1985
sg5
g6
sa(dp1986
g2
F1082.0
sg3
S'76_03'
p1987
sg5
g6
sa(dp1988
g2
F417.0
sg3
S'76_04'
p1989
sg5
g6
sa(dp1990
g2
F866.0
sg3
S'76_05'
p1991
sg5
g6
sa(dp1992
g2
F675.0
sg3
S'76_06'
p1993
sg5
g6
sa(dp1994
g2
F20.0
sg3
S'76_07'
p1995
sg5
g6
sa(dp1996
g2
F1503.0
sg3
S'76_08'
p1997
sg5
g6
sa(dp1998
g2
F1587.0
sg3
S'76_09'
p1999
sg5
g6
sa(dp2000
g2
F1365.0
sg3
S'76_10'
p2001
sg5
g6
sa(dp2002
g2
F513.0
sg3
S'76_11'
p2003
sg5
g6
sa(dp2004
g2
F586.0
sg3
S'79_01'
p2005
sg5
g6
sa(dp2006
g2
F776.0
sg3
S'79_02'
p2007
sg5
g6
sa(dp2008
g2
F843.0
sg3
S'79_03'
p2009
sg5
g6
sa(dp2010
g2
F909.0
sg3
S'79_04'
p2011
sg5
g6
sa(dp2012
g2
F980.0
sg3
S'79_05'
p2013
sg5
g6
sa(dp2014
g2
F590.0
sg3
S'79_06'
p2015
sg5
g6
sa(dp2016
g2
F329.0
sg3
S'79_07'
p2017
sg5
g6
sa(dp2018
g2
F442.0
sg3
S'79_08'
p2019
sg5
g6
sa(dp2020
g2
F838.0
sg3
S'79_09'
p2021
sg5
g6
sa(dp2022
g2
F703.0
sg3
S'79_10'
p2023
sg5
g6
sa(dp2024
g2
F130.0
sg3
S'79_11'
p2025
sg5
g6
sa(dp2026
g2
F1025.0
sg3
S'79_12'
p2027
sg5
g6
sa(dp2028
g2
F664.0
sg3
S'79_13'
p2029
sg5
g6
sa(dp2030
g2
F733.0
sg3
S'79_14'
p2031
sg5
g6
sa(dp2032
g2
F875.0
sg3
S'79_15'
p2033
sg5
g6
sa(dp2034
g2
F720.0
sg3
S'79_16'
p2035
sg5
g6
sa(dp2036
g2
F804.0
sg3
S'79_17'
p2037
sg5
g6
sa(dp2038
g2
F804.0
sg3
S'79_18'
p2039
sg5
g6
sa(dp2040
g2
F691.0
sg3
S'79_19'
p2041
sg5
g6
sa(dp2042
g2
F747.0
sg3
S'79_20'
p2043
sg5
g6
sa(dp2044
g2
F817.0
sg3
S'79_21'
p2045
sg5
g6
sa(dp2046
g2
F879.0
sg3
S'79_22'
p2047
sg5
g6
sa(dp2048
g2
F730.0
sg3
S'79_23'
p2049
sg5
g6
sa(dp2050
g2
F744.0
sg3
S'79_24'
p2051
sg5
g6
sa(dp2052
g2
F603.0
sg3
S'79_25'
p2053
sg5
g6
sa(dp2054
g2
F1032.0
sg3
S'79_26'
p2055
sg5
g6
sa(dp2056
g2
F883.0
sg3
S'79_27'
p2057
sg5
g6
sa(dp2058
g2
F408.0
sg3
S'79_28'
p2059
sg5
g6
sa(dp2060
g2
F678.0
sg3
S'79_29'
p2061
sg5
g6
sa(dp2062
g2
F800.0
sg3
S'79_30'
p2063
sg5
g6
sa(dp2064
g2
F578.0
sg3
S'79_31'
p2065
sg5
g6
sa(dp2066
g2
F964.0
sg3
S'79_32'
p2067
sg5
g6
sa(dp2068
g2
F581.0
sg3
S'79_33'
p2069
sg5
g6
sa(dp2070
g2
F748.0
sg3
S'79_34'
p2071
sg5
g6
sa(dp2072
g2
F1194.0
sg3
S'79_35'
p2073
sg5
g6
sa(dp2074
g2
F518.0
sg3
S'79_36'
p2075
sg5
g6
sa(dp2076
g2
F602.0
sg3
S'79_37'
p2077
sg5
g6
sa(dp2078
g2
F541.0
sg3
S'79_38'
p2079
sg5
g6
sa(dp2080
g2
F808.0
sg3
S'79_39'
p2081
sg5
g6
sa(dp2082
g2
F866.0
sg3
S'79_40'
p2083
sg5
g6
sa(dp2084
g2
F1108.0
sg3
S'79_41'
p2085
sg5
g6
sa(dp2086
g2
F793.0
sg3
S'79_42'
p2087
sg5
g6
sa(dp2088
g2
F987.0
sg3
S'79_43'
p2089
sg5
g6
sa(dp2090
g2
F854.0
sg3
S'79_44'
p2091
sg5
g6
sa(dp2092
g2
F863.0
sg3
S'79_45'
p2093
sg5
g6
sa(dp2094
g2
F1296.0
sg3
S'79_46'
p2095
sg5
g6
sa(dp2096
g2
F1234.0
sg3
S'79_47'
p2097
sg5
g6
sa(dp2098
g2
F1262.0
sg3
S'79_48'
p2099
sg5
g6
sa(dp2100
g2
F1038.0
sg3
S'79_49'
p2101
sg5
g6
sa(dp2102
g2
F734.0
sg3
S'79_50'
p2103
sg5
g6
sa(dp2104
g2
F854.0
sg3
S'79_51'
p2105
sg5
g6
sa(dp2106
g2
F898.0
sg3
S'79_52'
p2107
sg5
g6
sa(dp2108
g2
F746.0
sg3
S'79_53'
p2109
sg5
g6
sa(dp2110
g2
F1167.0
sg3
S'79_54'
p2111
sg5
g6
sa(dp2112
g2
F640.0
sg3
S'79_55'
p2113
sg5
g6
sa(dp2114
g2
F859.0
sg3
S'79_56'
p2115
sg5
g6
sa(dp2116
g2
F967.0
sg3
S'79_57'
p2117
sg5
g6
sa(dp2118
g2
F849.0
sg3
S'79_58'
p2119
sg5
g6
sa(dp2120
g2
F850.0
sg3
S'79_59'
p2121
sg5
g6
sa(dp2122
g2
F801.0
sg3
S'79_60'
p2123
sg5
g6
sa(dp2124
g2
F1091.0
sg3
S'79_61'
p2125
sg5
g6
sa(dp2126
g2
F845.0
sg3
S'79_62'
p2127
sg5
g6
sa(dp2128
g2
F1092.0
sg3
S'79_63'
p2129
sg5
g6
sa(dp2130
g2
F1078.0
sg3
S'79_64'
p2131
sg5
g6
sa(dp2132
g2
F653.0
sg3
S'79_65'
p2133
sg5
g6
sa(dp2134
g2
F728.0
sg3
S'79_66'
p2135
sg5
g6
sa(dp2136
g2
F1262.0
sg3
S'79_67'
p2137
sg5
g6
sa(dp2138
g2
F1180.0
sg3
S'79_68'
p2139
sg5
g6
sa(dp2140
g2
F817.0
sg3
S'79_69'
p2141
sg5
g6
sa(dp2142
g2
F763.0
sg3
S'79_70'
p2143
sg5
g6
sa(dp2144
g2
F1079.0
sg3
S'79_71'
p2145
sg5
g6
sa(dp2146
g2
F953.0
sg3
S'79_72'
p2147
sg5
g6
sa(dp2148
g2
F887.0
sg3
S'79_73'
p2149
sg5
g6
sa(dp2150
g2
F925.0
sg3
S'79_74'
p2151
sg5
g6
sa(dp2152
g2
F1290.0
sg3
S'79_75'
p2153
sg5
g6
sa(dp2154
g2
F1254.0
sg3
S'79_76'
p2155
sg5
g6
sa(dp2156
g2
F1145.0
sg3
S'79_77'
p2157
sg5
g6
sa(dp2158
g2
F1292.0
sg3
S'79_78'
p2159
sg5
g6
sa(dp2160
g2
F841.0
sg3
S'79_79'
p2161
sg5
g6
sa(dp2162
g2
F986.0
sg3
S'79_80'
p2163
sg5
g6
sa(dp2164
g2
F940.0
sg3
S'79_81'
p2165
sg5
g6
sa(dp2166
g2
F767.0
sg3
S'79_82'
p2167
sg5
g6
sa(dp2168
g2
F1172.0
sg3
S'79_83'
p2169
sg5
g6
sa(dp2170
g2
F876.0
sg3
S'79_84'
p2171
sg5
g6
sa(dp2172
g2
F1049.0
sg3
S'79_85'
p2173
sg5
g6
sa(dp2174
g2
F681.0
sg3
S'79_86'
p2175
sg5
g6
sa(dp2176
g2
F791.0
sg3
S'79_87'
p2177
sg5
g6
sa(dp2178
g2
F907.0
sg3
S'79_88'
p2179
sg5
g6
sa(dp2180
g2
F885.0
sg3
S'79_89'
p2181
sg5
g6
sa(dp2182
g2
F1358.0
sg3
S'79_90'
p2183
sg5
g6
sa(dp2184
g2
F498.0
sg3
S'79_91'
p2185
sg5
g6
sa(dp2186
g2
F638.0
sg3
S'79_92'
p2187
sg5
g6
sa(dp2188
g2
F1138.0
sg3
S'79_93'
p2189
sg5
g6
sa(dp2190
g2
F935.0
sg3
S'79_94'
p2191
sg5
g6
sa(dp2192
g2
F945.0
sg3
S'79_95'
p2193
sg5
g6
sa(dp2194
g2
F559.0
sg3
S'79_96'
p2195
sg5
g6
sa(dp2196
g2
F849.0
sg3
S'80_01'
p2197
sg5
g6
sa(dp2198
g2
F704.0
sg3
S'80_02'
p2199
sg5
g6
sa(dp2200
g2
F660.0
sg3
S'80_03'
p2201
sg5
g6
sa(dp2202
g2
F1102.0
sg3
S'80_04'
p2203
sg5
g6
sa(dp2204
g2
F1160.0
sg3
S'80_05'
p2205
sg5
g6
sa(dp2206
g2
F962.0
sg3
S'80_06'
p2207
sg5
g6
sa(dp2208
g2
F1558.0
sg3
S'80_07'
p2209
sg5
g6
sa(dp2210
g2
F879.0
sg3
S'80_08'
p2211
sg5
g6
sa(dp2212
g2
F1517.0
sg3
S'80_09'
p2213
sg5
g6
sa(dp2214
g2
F773.0
sg3
S'80_10'
p2215
sg5
g6
sa(dp2216
g2
F703.0
sg3
S'80_11'
p2217
sg5
g6
sa(dp2218
g2
F1611.0
sg3
S'80_12'
p2219
sg5
g6
sa(dp2220
g2
F1014.0
sg3
S'80_13'
p2221
sg5
g6
sa(dp2222
g2
F1735.0
sg3
S'80_14'
p2223
sg5
g6
sa(dp2224
g2
F1236.0
sg3
S'80_15'
p2225
sg5
g6
sa(dp2226
g2
F1259.0
sg3
S'80_16'
p2227
sg5
g6
sa(dp2228
g2
F1438.0
sg3
S'80_17'
p2229
sg5
g6
sa(dp2230
g2
F1511.0
sg3
S'80_18'
p2231
sg5
g6
sa(dp2232
g2
F1825.0
sg3
S'80_19'
p2233
sg5
g6
sa(dp2234
g2
F2020.0
sg3
S'80_20'
p2235
sg5
g6
sa(dp2236
g2
F1399.0
sg3
S'80_21'
p2237
sg5
g6
sa(dp2238
g2
F1054.0
sg3
S'80_22'
p2239
sg5
g6
sa(dp2240
g2
F1022.0
sg3
S'80_23'
p2241
sg5
g6
sa(dp2242
g2
F1782.0
sg3
S'80_24'
p2243
sg5
g6
sa(dp2244
g2
F1107.0
sg3
S'80_25'
p2245
sg5
g6
sa(dp2246
g2
F1233.0
sg3
S'80_26'
p2247
sg5
g6
sa(dp2248
g2
F1086.0
sg3
S'80_27'
p2249
sg5
g6
sa(dp2250
g2
F1221.0
sg3
S'80_28'
p2251
sg5
g6
sa(dp2252
g2
F1126.0
sg3
S'80_29'
p2253
sg5
g6
sa(dp2254
g2
F2590.0
sg3
S'80_30'
p2255
sg5
g6
sa(dp2256
g2
F1560.0
sg3
S'80_31'
p2257
sg5
g6
sa(dp2258
g2
F1614.0
sg3
S'80_32'
p2259
sg5
g6
sa(dp2260
g2
F1937.0
sg3
S'80_33'
p2261
sg5
g6
sa(dp2262
g2
F2088.0
sg3
S'80_34'
p2263
sg5
g6
sa(dp2264
g2
F1943.0
sg3
S'80_35'
p2265
sg5
g6
sa(dp2266
g2
F1689.0
sg3
S'80_36'
p2267
sg5
g6
sa(dp2268
g2
F2691.0
sg3
S'80_37'
p2269
sg5
g6
sa(dp2270
g2
F2467.0
sg3
S'80_38'
p2271
sg5
g6
sa(dp2272
g2
F1825.0
sg3
S'80_39'
p2273
sg5
g6
sa(dp2274
g2
F915.0
sg3
S'80_40'
p2275
sg5
g6
sa(dp2276
g2
F1065.0
sg3
S'80_41'
p2277
sg5
g6
sa(dp2278
g2
F1236.0
sg3
S'80_42'
p2279
sg5
g6
sa(dp2280
g2
F980.0
sg3
S'80_43'
p2281
sg5
g6
sa(dp2282
g2
F932.0
sg3
S'80_44'
p2283
sg5
g6
sa(dp2284
g2
F1605.0
sg3
S'80_45'
p2285
sg5
g6
sa(dp2286
g2
F1591.0
sg3
S'80_46'
p2287
sg5
g6
sa(dp2288
g2
F1004.0
sg3
S'80_47'
p2289
sg5
g6
sa(dp2290
g2
F1150.0
sg3
S'80_48'
p2291
sg5
g6
sa(dp2292
g2
F1867.0
sg3
S'80_49'
p2293
sg5
g6
sa(dp2294
g2
F1252.0
sg3
S'80_50'
p2295
sg5
g6
sa(dp2296
g2
F1501.0
sg3
S'80_51'
p2297
sg5
g6
sa(dp2298
g2
F1571.0
sg3
S'80_52'
p2299
sg5
g6
sa(dp2300
g2
F1806.0
sg3
S'80_53'
p2301
sg5
g6
sa(dp2302
g2
F1627.0
sg3
S'80_54'
p2303
sg5
g6
sa(dp2304
g2
F1375.0
sg3
S'80_55'
p2305
sg5
g6
sa(dp2306
g2
F690.0
sg3
S'80_56'
p2307
sg5
g6
sa(dp2308
g2
F1620.0
sg3
S'80_57'
p2309
sg5
g6
sa(dp2310
g2
F2352.0
sg3
S'80_58'
p2311
sg5
g6
sa(dp2312
g2
F1538.0
sg3
S'80_59'
p2313
sg5
g6
sa(dp2314
g2
F2059.0
sg3
S'80_60'
p2315
sg5
g6
sa(dp2316
g2
F1057.0
sg3
S'80_61'
p2317
sg5
g6
sa(dp2318
g2
F2289.0
sg3
S'80_62'
p2319
sg5
g6
sa(dp2320
g2
F2273.0
sg3
S'80_63'
p2321
sg5
g6
sa(dp2322
g2
F2435.0
sg3
S'80_64'
p2323
sg5
g6
sa(dp2324
g2
F1816.0
sg3
S'80_65'
p2325
sg5
g6
sa(dp2326
g2
F2071.0
sg3
S'80_66'
p2327
sg5
g6
sa(dp2328
g2
F2156.0
sg3
S'80_67'
p2329
sg5
g6
sa(dp2330
g2
F2775.0
sg3
S'80_68'
p2331
sg5
g6
sa(dp2332
g2
F4281.0
sg3
S'80_69'
p2333
sg5
g6
sa(dp2334
g2
F1799.0
sg3
S'80_70'
p2335
sg5
g6
sa(dp2336
g2
F1086.0
sg3
S'80_71'
p2337
sg5
g6
sa(dp2338
g2
F1087.0
sg3
S'80_72'
p2339
sg5
g6
sa(dp2340
g2
F790.0
sg3
S'80_73'
p2341
sg5
g6
sa(dp2342
g2
F998.0
sg3
S'85_01'
p2343
sg5
g6
sa(dp2344
g2
F810.0
sg3
S'85_02'
p2345
sg5
g6
sa(dp2346
g2
F3245.0
sg3
S'85_03'
p2347
sg5
g6
sa(dp2348
g2
F2555.0
sg3
S'85_04'
p2349
sg5
g6
sa(dp2350
g2
F1634.0
sg3
S'85_05'
p2351
sg5
g6
sa(dp2352
g2
F950.0
sg3
S'85_06'
p2353
sg5
g6
sa(dp2354
g2
F959.0
sg3
S'85_07'
p2355
sg5
g6
sa(dp2356
g2
F1016.0
sg3
S'85_08'
p2357
sg5
g6
sa(dp2358
g2
F253.0
sg3
S'85_09'
p2359
sg5
g6
sa(dp2360
g2
F774.0
sg3
S'85_10'
p2361
sg5
g6
sa(dp2362
g2
F1802.0
sg3
S'85_11'
p2363
sg5
g6
sa(dp2364
g2
F4499.0
sg3
S'85_12'
p2365
sg5
g6
sa(dp2366
g2
F1446.0
sg3
S'85_13'
p2367
sg5
g6
sa(dp2368
g2
F2969.0
sg3
S'85_14'
p2369
sg5
g6
sa(dp2370
g2
F1325.0
sg3
S'85_15'
p2371
sg5
g6
sa(dp2372
g2
F202.0
sg3
S'88_01'
p2373
sg5
g6
sa(dp2374
g2
F3328.0
sg3
S'88_02'
p2375
sg5
g6
sa(dp2376
g2
F354.0
sg3
S'88_03'
p2377
sg5
g6
sa(dp2378
g2
F1240.0
sg3
S'88_04'
p2379
sg5
g6
sa(dp2380
g2
F149.0
sg3
S'88_05'
p2381
sg5
g6
sa(dp2382
g2
F230.0
sg3
S'88_06'
p2383
sg5
g6
sa(dp2384
g2
F156.0
sg3
S'88_07'
p2385
sg5
g6
sa(dp2386
g2
F289.0
sg3
S'88_08'
p2387
sg5
g6
sa(dp2388
g2
F376.0
sg3
S'88_09'
p2389
sg5
g6
sa(dp2390
g2
F467.0
sg3
S'88_10'
p2391
sg5
g6
sa(dp2392
g2
F2027.0
sg3
S'88_11'
p2393
sg5
g6
sa(dp2394
g2
F2332.0
sg3
S'89_01'
p2395
sg5
g6
sa(dp2396
g2
F360.0
sg3
S'89_02'
p2397
sg5
g6
sa(dp2398
g2
F395.0
sg3
S'89_03'
p2399
sg5
g6
sa(dp2400
g2
F4462.0
sg3
S'89_05'
p2401
sg5
g6
sa(dp2402
g2
F4274.0
sg3
S'89_06'
p2403
sg5
g6
sa(dp2404
g2
F2737.0
sg3
S'91_01'
p2405
sg5
g6
sa(dp2406
g2
F1748.0
sg3
S'91_02'
p2407
sg5
g6
sa(dp2408
g2
F1865.0
sg3
S'91_03'
p2409
sg5
g6
sa(dp2410
g2
F2162.0
sg3
S'91_04'
p2411
sg5
g6
sa(dp2412
g2
F2700.0
sg3
S'91_05'
p2413
sg5
g6
sa(dp2414
g2
F136.0
sg3
S'91_06'
p2415
sg5
g6
sa(dp2416
g2
F2582.0
sg3
S'91_07'
p2417
sg5
g6
sa(dp2418
g2
F3972.0
sg3
S'91_08'
p2419
sg5
g6
sa(dp2420
g2
F5402.0
sg3
S'91_09'
p2421
sg5
g6
sa(dp2422
g2
F3175.0
sg3
S'91_10'
p2423
sg5
g6
sa(dp2424
g2
F1863.0
sg3
S'91_11'
p2425
sg5
g6
sa(dp2426
g2
F2222.0
sg3
S'91_12'
p2427
sg5
g6
sa(dp2428
g2
F2960.0
sg3
S'91_13'
p2429
sg5
g6
sa(dp2430
g2
F2769.0
sg3
S'91_14'
p2431
sg5
g6
sa(dp2432
g2
F3090.0
sg3
S'91_15'
p2433
sg5
g6
sa(dp2434
g2
F1892.0
sg3
S'91_16'
p2435
sg5
g6
sa(dp2436
g2
F1520.0
sg3
S'91_17'
p2437
sg5
g6
sa(dp2438
g2
F3363.0
sg3
S'91_18'
p2439
sg5
g6
sa(dp2440
g2
F1885.0
sg3
S'91_19'
p2441
sg5
g6
sa(dp2442
g2
F2774.0
sg3
S'91_20'
p2443
sg5
g6
sa(dp2444
g2
F3870.0
sg3
S'91_21'
p2445
sg5
g6
sa(dp2446
g2
F2106.0
sg3
S'91_22'
p2447
sg5
g6
sa(dp2448
g2
F2668.0
sg3
S'91_23'
p2449
sg5
g6
sa(dp2450
g2
F3804.0
sg3
S'91_24'
p2451
sg5
g6
sa(dp2452
g2
F3137.0
sg3
S'91_25'
p2453
sg5
g6
sa(dp2454
g2
F2082.0
sg3
S'91_26'
p2455
sg5
g6
sa(dp2456
g2
F2894.0
sg3
S'91_27'
p2457
sg5
g6
sa(dp2458
g2
F3307.0
sg3
S'91_28'
p2459
sg5
g6
sa(dp2460
g2
F2181.0
sg3
S'91_29'
p2461
sg5
g6
sa(dp2462
g2
F3139.0
sg3
S'91_30'
p2463
sg5
g6
sa(dp2464
g2
F1992.0
sg3
S'91_31'
p2465
sg5
g6
sa(dp2466
g2
F3724.0
sg3
S'91_32'
p2467
sg5
g6
sa(dp2468
g2
F2698.0
sg3
S'91_33'
p2469
sg5
g6
sa(dp2470
g2
F2208.0
sg3
S'91_34'
p2471
sg5
g6
sa(dp2472
g2
F3052.0
sg3
S'91_35'
p2473
sg5
g6
sa(dp2474
g2
F887.0
sg3
S'91_36'
p2475
sg5
g6
sa(dp2476
g2
F315.0
sg3
S'91_37'
p2477
sg5
g6
sa(dp2478
g2
F458.0
sg3
S'91_38'
p2479
sg5
g6
sa(dp2480
g2
F446.0
sg3
S'91_39'
p2481
sg5
g6
sa(dp2482
g2
F469.0
sg3
S'91_40'
p2483
sg5
g6
sa(dp2484
g2
F503.0
sg3
S'91_41'
p2485
sg5
g6
sa(dp2486
g2
F560.0
sg3
S'91_42'
p2487
sg5
g6
sa(dp2488
g2
F227.0
sg3
S'91_43'
p2489
sg5
g6
sa(dp2490
g2
F338.0
sg3
S'91_44'
p2491
sg5
g6
sa(dp2492
g2
F371.0
sg3
S'91_45'
p2493
sg5
g6
sa(dp2494
g2
F322.0
sg3
S'91_46'
p2495
sg5
g6
sa(dp2496
g2
F469.0
sg3
S'91_47'
p2497
sg5
g6
sa(dp2498
g2
F440.0
sg3
S'91_48'
p2499
sg5
g6
sa(dp2500
g2
F482.0
sg3
S'91_49'
p2501
sg5
g6
sa(dp2502
g2
F663.0
sg3
S'91_50'
p2503
sg5
g6
sa(dp2504
g2
F484.0
sg3
S'91_51'
p2505
sg5
g6
sa(dp2506
g2
F509.0
sg3
S'91_52'
p2507
sg5
g6
sa(dp2508
g2
F555.0
sg3
S'91_53'
p2509
sg5
g6
sa(dp2510
g2
F678.0
sg3
S'91_54'
p2511
sg5
g6
sa(dp2512
g2
F467.0
sg3
S'91_55'
p2513
sg5
g6
sa(dp2514
g2
F500.0
sg3
S'91_56'
p2515
sg5
g6
sa(dp2516
g2
F1177.0
sg3
S'91_57'
p2517
sg5
g6
sa(dp2518
g2
F493.0
sg3
S'91_58'
p2519
sg5
g6
sa(dp2520
g2
F312.0
sg3
S'91_59'
p2521
sg5
g6
sa(dp2522
g2
F367.0
sg3
S'91_60'
p2523
sg5
g6
sa(dp2524
g2
F362.0
sg3
S'91_61'
p2525
sg5
g6
sa(dp2526
g2
F1849.0
sg3
S'91_62'
p2527
sg5
g6
sa(dp2528
g2
F316.0
sg3
S'ung_07_01'
p2529
sg5
g53
sa(dp2530
g2
F329.0
sg3
S'ung_07_02'
p2531
sg5
g53
sa(dp2532
g2
F415.0
sg3
S'ung_07_03'
p2533
sg5
g53
sa(dp2534
g2
F449.0
sg3
S'ung_07_04'
p2535
sg5
g53
sa(dp2536
g2
F517.0
sg3
S'ung_07_05'
p2537
sg5
g53
sa(dp2538
g2
F417.0
sg3
S'ung_07_06'
p2539
sg5
g53
sa(dp2540
g2
F379.0
sg3
S'ung_07_07'
p2541
sg5
g53
sa(dp2542
g2
F362.0
sg3
S'ung_07_08'
p2543
sg5
g53
sa(dp2544
g2
F306.0
sg3
S'ung_07_09'
p2545
sg5
g53
sa(dp2546
g2
F301.0
sg3
S'ung_07_10'
p2547
sg5
g53
sa(dp2548
g2
F315.0
sg3
S'ung_07_11'
p2549
sg5
g53
sa(dp2550
g2
F263.0
sg3
S'ung_07_12'
p2551
sg5
g53
sa(dp2552
g2
F277.0
sg3
S'ung_102_01'
p2553
sg5
g6
sa(dp2554
g2
F174.0
sg3
S'ung_102_02'
p2555
sg5
g6
sa(dp2556
g2
F152.0
sg3
S'ung_102_03'
p2557
sg5
g6
sa(dp2558
g2
F167.0
sg3
S'ung_102_04'
p2559
sg5
g6
sa(dp2560
g2
F109.0
sg3
S'ung_102_05'
p2561
sg5
g6
sa(dp2562
g2
F141.0
sg3
S'ung_102_06'
p2563
sg5
g6
sa(dp2564
g2
F112.0
sg3
S'ung_102_07'
p2565
sg5
g6
sa(dp2566
g2
F140.0
sg3
S'ung_102_08'
p2567
sg5
g6
sa(dp2568
g2
F46.0
sg3
S'ung_102_09'
p2569
sg5
g6
sa(dp2570
g2
F97.0
sg3
S'ung_102_10'
p2571
sg5
g6
sa(dp2572
g2
F174.0
sg3
S'ung_102_11'
p2573
sg5
g6
sa(dp2574
g2
F171.0
sg3
S'ung_102_12'
p2575
sg5
g6
sa(dp2576
g2
F152.0
sg3
S'ung_102_13'
p2577
sg5
g6
sa(dp2578
g2
F196.0
sg3
S'ung_102_14'
p2579
sg5
g6
sa(dp2580
g2
F179.0
sg3
S'ung_102_15'
p2581
sg5
g6
sa(dp2582
g2
F213.0
sg3
S'ung_102_16'
p2583
sg5
g6
sa(dp2584
g2
F176.0
sg3
S'ung_102_17'
p2585
sg5
g6
sa(dp2586
g2
F230.0
sg3
S'ung_102_18'
p2587
sg5
g6
sa(dp2588
g2
F226.0
sg3
S'ung_102_19'
p2589
sg5
g6
sa(dp2590
g2
F606.0
sg3
S'ung_102_20'
p2591
sg5
g6
sa(dp2592
g2
F519.0
sg3
S'ung_102_21'
p2593
sg5
g6
sa(dp2594
g2
F246.0
sg3
S'ung_102_22'
p2595
sg5
g6
sa(dp2596
g2
F356.0
sg3
S'ung_102_23'
p2597
sg5
g6
sa(dp2598
g2
F326.0
sg3
S'ung_102_24'
p2599
sg5
g6
sa(dp2600
g2
F296.0
sg3
S'ung_102_25'
p2601
sg5
g6
sa(dp2602
g2
F448.0
sg3
S'ung_102_26'
p2603
sg5
g6
sa(dp2604
g2
F171.0
sg3
S'ung_102_27'
p2605
sg5
g6
sa(dp2606
g2
F703.0
sg3
S'ung_102_28'
p2607
sg5
g6
sa(dp2608
g2
F798.0
sg3
S'ung_102_29'
p2609
sg5
g6
sa(dp2610
g2
F214.0
sg3
S'ung_102_30'
p2611
sg5
g6
sa(dp2612
g2
F229.0
sg3
S'ung_102_31'
p2613
sg5
g6
sa(dp2614
g2
F305.0
sg3
S'ung_102_32'
p2615
sg5
g6
sa(dp2616
g2
F220.0
sg3
S'ung_102_33'
p2617
sg5
g6
sa(dp2618
g2
F21.0
sg3
S'ung_103_01'
p2619
sg5
g6
sa(dp2620
g2
F1492.0
sg3
S'ung_103_02'
p2621
sg5
g6
sa(dp2622
g2
F442.0
sg3
S'ung_103_03'
p2623
sg5
g6
sa(dp2624
g2
F506.0
sg3
S'ung_103_04'
p2625
sg5
g6
sa(dp2626
g2
F546.0
sg3
S'ung_103_05'
p2627
sg5
g6
sa(dp2628
g2
F402.0
sg3
S'ung_103_06'
p2629
sg5
g6
sa(dp2630
g2
F236.0
sg3
S'ung_103_07'
p2631
sg5
g6
sa(dp2632
g2
F557.0
sg3
S'ung_103_08'
p2633
sg5
g6
sa(dp2634
g2
F885.0
sg3
S'ung_104_02'
p2635
sg5
g53
sa(dp2636
g2
F1619.0
sg3
S'ung_104_03'
p2637
sg5
g53
sa(dp2638
g2
F198.0
sg3
S'ung_104_04'
p2639
sg5
g53
sa(dp2640
g2
F489.0
sg3
S'ung_104_05'
p2641
sg5
g53
sa(dp2642
g2
F337.0
sg3
S'ung_104_06'
p2643
sg5
g53
sa(dp2644
g2
F2304.0
sg3
S'ung_104_07'
p2645
sg5
g53
sa(dp2646
g2
F314.0
sg3
S'ung_104_08'
p2647
sg5
g53
sa(dp2648
g2
F349.0
sg3
S'ung_104_09'
p2649
sg5
g53
sa(dp2650
g2
F334.0
sg3
S'ung_104_10'
p2651
sg5
g53
sa(dp2652
g2
F539.0
sg3
S'ung_104_11'
p2653
sg5
g53
sa(dp2654
g2
F421.0
sg3
S'ung_104_12'
p2655
sg5
g53
sa(dp2656
g2
F550.0
sg3
S'ung_104_13'
p2657
sg5
g53
sa(dp2658
g2
F709.0
sg3
S'ung_104_14'
p2659
sg5
g53
sa(dp2660
g2
F208.0
sg3
S'ung_104_15'
p2661
sg5
g53
sa(dp2662
g2
F327.0
sg3
S'ung_104_16'
p2663
sg5
g53
sa(dp2664
g2
F465.0
sg3
S'ung_104_17'
p2665
sg5
g53
sa(dp2666
g2
F921.0
sg3
S'ung_104_19'
p2667
sg5
g53
sa(dp2668
g2
F701.0
sg3
S'ung_104_20'
p2669
sg5
g53
sa(dp2670
g2
F789.0
sg3
S'ung_104_21'
p2671
sg5
g53
sa(dp2672
g2
F1838.0
sg3
S'ung_104_22'
p2673
sg5
g53
sa(dp2674
g2
F1834.0
sg3
S'ung_104_23'
p2675
sg5
g53
sa(dp2676
g2
F1896.0
sg3
S'ung_104_24'
p2677
sg5
g53
sa(dp2678
g2
F2451.0
sg3
S'ung_104_25'
p2679
sg5
g53
sa(dp2680
g2
F1100.0
sg3
S'ung_104_26'
p2681
sg5
g53
sa(dp2682
g2
F2434.0
sg3
S'ung_104_27'
p2683
sg5
g53
sa(dp2684
g2
F566.0
sg3
S'ung_104_28'
p2685
sg5
g53
sa(dp2686
g2
F480.0
sg3
S'ung_104_29'
p2687
sg5
g53
sa(dp2688
g2
F1365.0
sg3
S'ung_104_30'
p2689
sg5
g53
sa(dp2690
g2
F1287.0
sg3
S'ung_104_31'
p2691
sg5
g53
sa(dp2692
g2
F1565.0
sg3
S'ung_104_32'
p2693
sg5
g53
sa(dp2694
g2
F1486.0
sg3
S'ung_104_33'
p2695
sg5
g53
sa(dp2696
g2
F1115.0
sg3
S'ung_104_34'
p2697
sg5
g53
sa(dp2698
g2
F1074.0
sg3
S'ung_104_35'
p2699
sg5
g53
sa(dp2700
g2
F2315.0
sg3
S'ung_104_36'
p2701
sg5
g53
sa(dp2702
g2
F150.0
sg3
S'ung_104_37'
p2703
sg5
g53
sa(dp2704
g2
F2669.0
sg3
S'ung_104_38'
p2705
sg5
g53
sa(dp2706
g2
F3214.0
sg3
S'ung_104_39'
p2707
sg5
g53
sa(dp2708
g2
F3036.0
sg3
S'ung_104_40'
p2709
sg5
g53
sa(dp2710
g2
F1558.0
sg3
S'ung_104_41'
p2711
sg5
g53
sa(dp2712
g2
F2613.0
sg3
S'ung_104_42'
p2713
sg5
g53
sa(dp2714
g2
F3377.0
sg3
S'ung_104_43'
p2715
sg5
g53
sa(dp2716
g2
F1087.0
sg3
S'ung_104_44'
p2717
sg5
g53
sa(dp2718
g2
F2207.0
sg3
S'ung_104_45'
p2719
sg5
g53
sa(dp2720
g2
F2783.0
sg3
S'ung_104_46'
p2721
sg5
g53
sa(dp2722
g2
F1694.0
sg3
S'ung_104_47'
p2723
sg5
g53
sa(dp2724
g2
F120.0
sg3
S'ung_104_48'
p2725
sg5
g53
sa(dp2726
g2
F2726.0
sg3
S'ung_104_49'
p2727
sg5
g53
sa(dp2728
g2
F3205.0
sg3
S'ung_104_50'
p2729
sg5
g53
sa(dp2730
g2
F1382.0
sg3
S'ung_104_51'
p2731
sg5
g53
sa(dp2732
g2
F2708.0
sg3
S'ung_104_52'
p2733
sg5
g53
sa(dp2734
g2
F299.0
sg3
S'ung_104_53'
p2735
sg5
g53
sa(dp2736
g2
F249.0
sg3
S'ung_104_54'
p2737
sg5
g53
sa(dp2738
g2
F368.0
sg3
S'ung_104_56'
p2739
sg5
g53
sa(dp2740
g2
F384.0
sg3
S'ung_104_57'
p2741
sg5
g53
sa(dp2742
g2
F2737.0
sg3
S'ung_105_01'
p2743
sg5
g6
sa(dp2744
g2
F1748.0
sg3
S'ung_105_02'
p2745
sg5
g6
sa(dp2746
g2
F1865.0
sg3
S'ung_105_03'
p2747
sg5
g6
sa(dp2748
g2
F2162.0
sg3
S'ung_105_04'
p2749
sg5
g6
sa(dp2750
g2
F2700.0
sg3
S'ung_105_05'
p2751
sg5
g6
sa(dp2752
g2
F136.0
sg3
S'ung_105_06'
p2753
sg5
g6
sa(dp2754
g2
F2582.0
sg3
S'ung_105_07'
p2755
sg5
g6
sa(dp2756
g2
F3972.0
sg3
S'ung_105_08'
p2757
sg5
g6
sa(dp2758
g2
F5402.0
sg3
S'ung_105_09'
p2759
sg5
g6
sa(dp2760
g2
F3175.0
sg3
S'ung_105_10'
p2761
sg5
g6
sa(dp2762
g2
F1863.0
sg3
S'ung_105_11'
p2763
sg5
g6
sa(dp2764
g2
F2222.0
sg3
S'ung_105_12'
p2765
sg5
g6
sa(dp2766
g2
F2960.0
sg3
S'ung_105_13'
p2767
sg5
g6
sa(dp2768
g2
F2769.0
sg3
S'ung_105_14'
p2769
sg5
g6
sa(dp2770
g2
F3090.0
sg3
S'ung_105_15'
p2771
sg5
g6
sa(dp2772
g2
F1892.0
sg3
S'ung_105_16'
p2773
sg5
g6
sa(dp2774
g2
F1520.0
sg3
S'ung_105_17'
p2775
sg5
g6
sa(dp2776
g2
F3363.0
sg3
S'ung_105_18'
p2777
sg5
g6
sa(dp2778
g2
F1885.0
sg3
S'ung_105_19'
p2779
sg5
g6
sa(dp2780
g2
F2774.0
sg3
S'ung_105_20'
p2781
sg5
g6
sa(dp2782
g2
F3870.0
sg3
S'ung_105_21'
p2783
sg5
g6
sa(dp2784
g2
F2106.0
sg3
S'ung_105_22'
p2785
sg5
g6
sa(dp2786
g2
F2668.0
sg3
S'ung_105_23'
p2787
sg5
g6
sa(dp2788
g2
F3804.0
sg3
S'ung_105_24'
p2789
sg5
g6
sa(dp2790
g2
F3137.0
sg3
S'ung_105_25'
p2791
sg5
g6
sa(dp2792
g2
F2082.0
sg3
S'ung_105_26'
p2793
sg5
g6
sa(dp2794
g2
F2894.0
sg3
S'ung_105_27'
p2795
sg5
g6
sa(dp2796
g2
F3307.0
sg3
S'ung_105_28'
p2797
sg5
g6
sa(dp2798
g2
F2181.0
sg3
S'ung_105_29'
p2799
sg5
g6
sa(dp2800
g2
F3139.0
sg3
S'ung_105_30'
p2801
sg5
g6
sa(dp2802
g2
F1992.0
sg3
S'ung_105_31'
p2803
sg5
g6
sa(dp2804
g2
F3724.0
sg3
S'ung_105_32'
p2805
sg5
g6
sa(dp2806
g2
F2698.0
sg3
S'ung_105_33'
p2807
sg5
g6
sa(dp2808
g2
F2208.0
sg3
S'ung_105_34'
p2809
sg5
g6
sa(dp2810
g2
F3052.0
sg3
S'ung_105_35'
p2811
sg5
g6
sa(dp2812
g2
F887.0
sg3
S'ung_105_36'
p2813
sg5
g6
sa(dp2814
g2
F315.0
sg3
S'ung_105_37'
p2815
sg5
g6
sa(dp2816
g2
F458.0
sg3
S'ung_105_38'
p2817
sg5
g6
sa(dp2818
g2
F446.0
sg3
S'ung_105_39'
p2819
sg5
g6
sa(dp2820
g2
F469.0
sg3
S'ung_105_40'
p2821
sg5
g6
sa(dp2822
g2
F503.0
sg3
S'ung_105_41'
p2823
sg5
g6
sa(dp2824
g2
F560.0
sg3
S'ung_105_42'
p2825
sg5
g6
sa(dp2826
g2
F227.0
sg3
S'ung_105_43'
p2827
sg5
g6
sa(dp2828
g2
F338.0
sg3
S'ung_105_44'
p2829
sg5
g6
sa(dp2830
g2
F371.0
sg3
S'ung_105_45'
p2831
sg5
g6
sa(dp2832
g2
F322.0
sg3
S'ung_105_46'
p2833
sg5
g6
sa(dp2834
g2
F469.0
sg3
S'ung_105_47'
p2835
sg5
g6
sa(dp2836
g2
F440.0
sg3
S'ung_105_48'
p2837
sg5
g6
sa(dp2838
g2
F482.0
sg3
S'ung_105_49'
p2839
sg5
g6
sa(dp2840
g2
F663.0
sg3
S'ung_105_50'
p2841
sg5
g6
sa(dp2842
g2
F484.0
sg3
S'ung_105_51'
p2843
sg5
g6
sa(dp2844
g2
F509.0
sg3
S'ung_105_52'
p2845
sg5
g6
sa(dp2846
g2
F555.0
sg3
S'ung_105_53'
p2847
sg5
g6
sa(dp2848
g2
F678.0
sg3
S'ung_105_54'
p2849
sg5
g6
sa(dp2850
g2
F467.0
sg3
S'ung_105_55'
p2851
sg5
g6
sa(dp2852
g2
F500.0
sg3
S'ung_105_56'
p2853
sg5
g6
sa(dp2854
g2
F1177.0
sg3
S'ung_105_57'
p2855
sg5
g6
sa(dp2856
g2
F493.0
sg3
S'ung_105_58'
p2857
sg5
g6
sa(dp2858
g2
F312.0
sg3
S'ung_105_59'
p2859
sg5
g6
sa(dp2860
g2
F367.0
sg3
S'ung_105_60'
p2861
sg5
g6
sa(dp2862
g2
F362.0
sg3
S'ung_105_61'
p2863
sg5
g6
sa(dp2864
g2
F1849.0
sg3
S'ung_105_62'
p2865
sg5
g6
sa(dp2866
g2
F74.0
sg3
S'ung_106_01'
p2867
sg5
g6
sa(dp2868
g2
F112.0
sg3
S'ung_106_02'
p2869
sg5
g6
sa(dp2870
g2
F230.0
sg3
S'ung_106_03'
p2871
sg5
g6
sa(dp2872
g2
F547.0
sg3
S'ung_106_04'
p2873
sg5
g6
sa(dp2874
g2
F230.0
sg3
S'ung_106_05'
p2875
sg5
g6
sa(dp2876
g2
F651.0
sg3
S'ung_106_06'
p2877
sg5
g6
sa(dp2878
g2
F298.0
sg3
S'ung_106_07'
p2879
sg5
g6
sa(dp2880
g2
F331.0
sg3
S'ung_106_08'
p2881
sg5
g6
sa(dp2882
g2
F234.0
sg3
S'ung_106_09'
p2883
sg5
g6
sa(dp2884
g2
F507.0
sg3
S'ung_106_10'
p2885
sg5
g6
sa(dp2886
g2
F686.0
sg3
S'ung_106_11'
p2887
sg5
g6
sa(dp2888
g2
F568.0
sg3
S'ung_106_12'
p2889
sg5
g6
sa(dp2890
g2
F368.0
sg3
S'ung_106_13'
p2891
sg5
g6
sa(dp2892
g2
F577.0
sg3
S'ung_106_14'
p2893
sg5
g6
sa(dp2894
g2
F1165.0
sg3
S'ung_106_15'
p2895
sg5
g6
sa(dp2896
g2
F299.0
sg3
S'ung_106_16'
p2897
sg5
g6
sa(dp2898
g2
F561.0
sg3
S'ung_106_17'
p2899
sg5
g6
sa(dp2900
g2
F388.0
sg3
S'ung_106_18'
p2901
sg5
g6
sa(dp2902
g2
F1193.0
sg3
S'ung_106_19'
p2903
sg5
g6
sa(dp2904
g2
F763.0
sg3
S'ung_106_20'
p2905
sg5
g6
sa(dp2906
g2
F272.0
sg3
S'ung_106_21'
p2907
sg5
g6
sa(dp2908
g2
F198.0
sg3
S'ung_106_22'
p2909
sg5
g6
sa(dp2910
g2
F256.0
sg3
S'ung_106_23'
p2911
sg5
g6
sa(dp2912
g2
F260.0
sg3
S'ung_106_24'
p2913
sg5
g6
sa(dp2914
g2
F614.0
sg3
S'ung_106_25'
p2915
sg5
g6
sa(dp2916
g2
F398.0
sg3
S'ung_106_26'
p2917
sg5
g6
sa(dp2918
g2
F555.0
sg3
S'ung_106_27'
p2919
sg5
g6
sa(dp2920
g2
F355.0
sg3
S'ung_106_28'
p2921
sg5
g6
sa(dp2922
g2
F1166.0
sg3
S'ung_106_29'
p2923
sg5
g6
sa(dp2924
g2
F721.0
sg3
S'ung_106_30'
p2925
sg5
g6
sa(dp2926
g2
F671.0
sg3
S'ung_106_31'
p2927
sg5
g6
sa(dp2928
g2
F888.0
sg3
S'ung_106_32'
p2929
sg5
g6
sa(dp2930
g2
F1059.0
sg3
S'ung_106_33'
p2931
sg5
g6
sa(dp2932
g2
F314.0
sg3
S'ung_106_34'
p2933
sg5
g6
sa(dp2934
g2
F531.0
sg3
S'ung_107_01'
p2935
sg5
g53
sa(dp2936
g2
F688.0
sg3
S'ung_107_02'
p2937
sg5
g53
sa(dp2938
g2
F513.0
sg3
S'ung_107_03'
p2939
sg5
g53
sa(dp2940
g2
F436.0
sg3
S'ung_107_04'
p2941
sg5
g53
sa(dp2942
g2
F432.0
sg3
S'ung_107_05'
p2943
sg5
g53
sa(dp2944
g2
F369.0
sg3
S'ung_107_06'
p2945
sg5
g53
sa(dp2946
g2
F515.0
sg3
S'ung_107_07'
p2947
sg5
g53
sa(dp2948
g2
F828.0
sg3
S'ung_107_08'
p2949
sg5
g53
sa(dp2950
g2
F626.0
sg3
S'ung_107_09'
p2951
sg5
g53
sa(dp2952
g2
F569.0
sg3
S'ung_107_10'
p2953
sg5
g53
sa(dp2954
g2
F600.0
sg3
S'ung_107_11'
p2955
sg5
g53
sa(dp2956
g2
F255.0
sg3
S'ung_107_12'
p2957
sg5
g53
sa(dp2958
g2
F215.0
sg3
S'ung_107_13'
p2959
sg5
g53
sa(dp2960
g2
F442.0
sg3
S'ung_107_14'
p2961
sg5
g53
sa(dp2962
g2
F723.0
sg3
S'ung_108_01'
p2963
sg5
g53
sa(dp2964
g2
F1144.0
sg3
S'ung_108_02'
p2965
sg5
g53
sa(dp2966
g2
F1227.0
sg3
S'ung_108_03'
p2967
sg5
g53
sa(dp2968
g2
F184.0
sg3
S'ung_108_04'
p2969
sg5
g53
sa(dp2970
g2
F183.0
sg3
S'ung_108_05'
p2971
sg5
g53
sa(dp2972
g2
F189.0
sg3
S'ung_108_06'
p2973
sg5
g53
sa(dp2974
g2
F223.0
sg3
S'ung_108_07'
p2975
sg5
g53
sa(dp2976
g2
F225.0
sg3
S'ung_108_08'
p2977
sg5
g53
sa(dp2978
g2
F251.0
sg3
S'ung_108_09'
p2979
sg5
g53
sa(dp2980
g2
F238.0
sg3
S'ung_108_10'
p2981
sg5
g53
sa(dp2982
g2
F244.0
sg3
S'ung_108_11'
p2983
sg5
g53
sa(dp2984
g2
F137.0
sg3
S'ung_108_12'
p2985
sg5
g53
sa(dp2986
g2
F156.0
sg3
S'ung_108_13'
p2987
sg5
g53
sa(dp2988
g2
F176.0
sg3
S'ung_108_14'
p2989
sg5
g53
sa(dp2990
g2
F356.0
sg3
S'ung_108_15'
p2991
sg5
g53
sa(dp2992
g2
F353.0
sg3
S'ung_108_16'
p2993
sg5
g53
sa(dp2994
g2
F231.0
sg3
S'ung_108_17'
p2995
sg5
g53
sa(dp2996
g2
F246.0
sg3
S'ung_108_18'
p2997
sg5
g53
sa(dp2998
g2
F255.0
sg3
S'ung_108_19'
p2999
sg5
g53
sa(dp3000
g2
F279.0
sg3
S'ung_108_20'
p3001
sg5
g53
sa(dp3002
g2
F496.0
sg3
S'ung_108_21'
p3003
sg5
g53
sa(dp3004
g2
F462.0
sg3
S'ung_108_22'
p3005
sg5
g53
sa(dp3006
g2
F664.0
sg3
S'ung_108_23'
p3007
sg5
g53
sa(dp3008
g2
F531.0
sg3
S'ung_108_24'
p3009
sg5
g53
sa(dp3010
g2
F611.0
sg3
S'ung_108_25'
p3011
sg5
g53
sa(dp3012
g2
F553.0
sg3
S'ung_108_26'
p3013
sg5
g53
sa(dp3014
g2
F419.0
sg3
S'ung_108_27'
p3015
sg5
g53
sa(dp3016
g2
F363.0
sg3
S'ung_108_28'
p3017
sg5
g53
sa(dp3018
g2
F801.0
sg3
S'ung_10_01'
p3019
sg5
g53
sa(dp3020
g2
F590.0
sg3
S'ung_10_02'
p3021
sg5
g53
sa(dp3022
g2
F362.0
sg3
S'ung_10_03'
p3023
sg5
g53
sa(dp3024
g2
F549.0
sg3
S'ung_10_04'
p3025
sg5
g53
sa(dp3026
g2
F436.0
sg3
S'ung_10_05'
p3027
sg5
g53
sa(dp3028
g2
F572.0
sg3
S'ung_10_06'
p3029
sg5
g53
sa(dp3030
g2
F999.0
sg3
S'ung_111_01'
p3031
sg5
g6
sa(dp3032
g2
F423.0
sg3
S'ung_111_02'
p3033
sg5
g6
sa(dp3034
g2
F1524.0
sg3
S'ung_111_03'
p3035
sg5
g6
sa(dp3036
g2
F727.0
sg3
S'ung_111_04'
p3037
sg5
g6
sa(dp3038
g2
F926.0
sg3
S'ung_111_05'
p3039
sg5
g6
sa(dp3040
g2
F1524.0
sg3
S'ung_111_06'
p3041
sg5
g6
sa(dp3042
g2
F1973.0
sg3
S'ung_111_07'
p3043
sg5
g6
sa(dp3044
g2
F1534.0
sg3
S'ung_111_08'
p3045
sg5
g6
sa(dp3046
g2
F785.0
sg3
S'ung_111_09'
p3047
sg5
g6
sa(dp3048
g2
F449.0
sg3
S'ung_111_10'
p3049
sg5
g6
sa(dp3050
g2
F572.0
sg3
S'ung_111_11'
p3051
sg5
g6
sa(dp3052
g2
F1617.0
sg3
S'ung_111_12'
p3053
sg5
g6
sa(dp3054
g2
F1281.0
sg3
S'ung_111_13'
p3055
sg5
g6
sa(dp3056
g2
F1288.0
sg3
S'ung_111_14'
p3057
sg5
g6
sa(dp3058
g2
F269.0
sg3
S'ung_111_15'
p3059
sg5
g6
sa(dp3060
g2
F430.0
sg3
S'ung_111_16'
p3061
sg5
g6
sa(dp3062
g2
F564.0
sg3
S'ung_111_17'
p3063
sg5
g6
sa(dp3064
g2
F541.0
sg3
S'ung_111_18'
p3065
sg5
g6
sa(dp3066
g2
F1024.0
sg3
S'ung_111_19'
p3067
sg5
g6
sa(dp3068
g2
F1059.0
sg3
S'ung_111_20'
p3069
sg5
g6
sa(dp3070
g2
F2275.0
sg3
S'ung_111_21'
p3071
sg5
g6
sa(dp3072
g2
F5922.0
sg3
S'ung_111_22'
p3073
sg5
g6
sa(dp3074
g2
F1129.0
sg3
S'ung_111_23'
p3075
sg5
g6
sa(dp3076
g2
F862.0
sg3
S'ung_111_24'
p3077
sg5
g6
sa(dp3078
g2
F291.0
sg3
S'ung_111_25'
p3079
sg5
g6
sa(dp3080
g2
F2721.0
sg3
S'ung_111_26'
p3081
sg5
g6
sa(dp3082
g2
F1452.0
sg3
S'ung_111_27'
p3083
sg5
g6
sa(dp3084
g2
F1907.0
sg3
S'ung_111_28'
p3085
sg5
g6
sa(dp3086
g2
F545.0
sg3
S'ung_111_29'
p3087
sg5
g6
sa(dp3088
g2
F462.0
sg3
S'ung_111_30'
p3089
sg5
g6
sa(dp3090
g2
F2247.0
sg3
S'ung_111_31'
p3091
sg5
g6
sa(dp3092
g2
F748.0
sg3
S'ung_111_32'
p3093
sg5
g6
sa(dp3094
g2
F2069.0
sg3
S'ung_111_33'
p3095
sg5
g6
sa(dp3096
g2
F1837.0
sg3
S'ung_111_34'
p3097
sg5
g6
sa(dp3098
g2
F1503.0
sg3
S'ung_111_35'
p3099
sg5
g6
sa(dp3100
g2
F1465.0
sg3
S'ung_111_36'
p3101
sg5
g6
sa(dp3102
g2
F324.0
sg3
S'ung_111_37'
p3103
sg5
g6
sa(dp3104
g2
F2640.0
sg3
S'ung_111_38'
p3105
sg5
g6
sa(dp3106
g2
F4094.0
sg3
S'ung_111_39'
p3107
sg5
g6
sa(dp3108
g2
F307.0
sg3
S'ung_111_40'
p3109
sg5
g6
sa(dp3110
g2
F3697.0
sg3
S'ung_111_41'
p3111
sg5
g6
sa(dp3112
g2
F835.0
sg3
S'ung_113_01'
p3113
sg5
g6
sa(dp3114
g2
F529.0
sg3
S'ung_113_02'
p3115
sg5
g6
sa(dp3116
g2
F485.0
sg3
S'ung_113_03'
p3117
sg5
g6
sa(dp3118
g2
F970.0
sg3
S'ung_113_04'
p3119
sg5
g6
sa(dp3120
g2
F2660.0
sg3
S'ung_113_05'
p3121
sg5
g6
sa(dp3122
g2
F2026.0
sg3
S'ung_113_06'
p3123
sg5
g6
sa(dp3124
g2
F582.0
sg3
S'ung_113_07'
p3125
sg5
g6
sa(dp3126
g2
F1845.0
sg3
S'ung_113_08'
p3127
sg5
g6
sa(dp3128
g2
F1198.0
sg3
S'ung_113_09'
p3129
sg5
g6
sa(dp3130
g2
F1334.0
sg3
S'ung_113_10'
p3131
sg5
g6
sa(dp3132
g2
F278.0
sg3
S'ung_113_11'
p3133
sg5
g6
sa(dp3134
g2
F397.0
sg3
S'ung_113_12'
p3135
sg5
g6
sa(dp3136
g2
F1343.0
sg3
S'ung_113_13'
p3137
sg5
g6
sa(dp3138
g2
F1012.0
sg3
S'ung_113_14'
p3139
sg5
g6
sa(dp3140
g2
F953.0
sg3
S'ung_113_15'
p3141
sg5
g6
sa(dp3142
g2
F699.0
sg3
S'ung_113_16'
p3143
sg5
g6
sa(dp3144
g2
F1854.0
sg3
S'ung_113_17'
p3145
sg5
g6
sa(dp3146
g2
F2196.0
sg3
S'ung_113_18'
p3147
sg5
g6
sa(dp3148
g2
F803.0
sg3
S'ung_113_19'
p3149
sg5
g6
sa(dp3150
g2
F1448.0
sg3
S'ung_113_20'
p3151
sg5
g6
sa(dp3152
g2
F1367.0
sg3
S'ung_113_21'
p3153
sg5
g6
sa(dp3154
g2
F1193.0
sg3
S'ung_113_22'
p3155
sg5
g6
sa(dp3156
g2
F1010.0
sg3
S'ung_113_23'
p3157
sg5
g6
sa(dp3158
g2
F1105.0
sg3
S'ung_113_24'
p3159
sg5
g6
sa(dp3160
g2
F689.0
sg3
S'ung_113_25'
p3161
sg5
g6
sa(dp3162
g2
F1316.0
sg3
S'ung_113_26'
p3163
sg5
g6
sa(dp3164
g2
F357.0
sg3
S'ung_113_27'
p3165
sg5
g6
sa(dp3166
g2
F5153.0
sg3
S'ung_113_28'
p3167
sg5
g6
sa(dp3168
g2
F4318.0
sg3
S'ung_113_29'
p3169
sg5
g6
sa(dp3170
g2
F321.0
sg3
S'ung_114_01'
p3171
sg5
g6
sa(dp3172
g2
F1742.0
sg3
S'ung_114_02'
p3173
sg5
g6
sa(dp3174
g2
F3811.0
sg3
S'ung_114_03'
p3175
sg5
g6
sa(dp3176
g2
F895.0
sg3
S'ung_114_04'
p3177
sg5
g6
sa(dp3178
g2
F2724.0
sg3
S'ung_114_05'
p3179
sg5
g6
sa(dp3180
g2
F1023.0
sg3
S'ung_114_06'
p3181
sg5
g6
sa(dp3182
g2
F1619.0
sg3
S'ung_114_07'
p3183
sg5
g6
sa(dp3184
g2
F1608.0
sg3
S'ung_114_08'
p3185
sg5
g6
sa(dp3186
g2
F2277.0
sg3
S'ung_114_09'
p3187
sg5
g6
sa(dp3188
g2
F8058.0
sg3
S'ung_114_10'
p3189
sg5
g6
sa(dp3190
g2
F3482.0
sg3
S'ung_114_11'
p3191
sg5
g6
sa(dp3192
g2
F1122.0
sg3
S'ung_114_12'
p3193
sg5
g6
sa(dp3194
g2
F3132.0
sg3
S'ung_114_13'
p3195
sg5
g6
sa(dp3196
g2
F5854.0
sg3
S'ung_114_14'
p3197
sg5
g6
sa(dp3198
g2
F1384.0
sg3
S'ung_114_15'
p3199
sg5
g6
sa(dp3200
g2
F1729.0
sg3
S'ung_114_16'
p3201
sg5
g6
sa(dp3202
g2
F469.0
sg3
S'ung_115_01'
p3203
sg5
g53
sa(dp3204
g2
F400.0
sg3
S'ung_115_02'
p3205
sg5
g53
sa(dp3206
g2
F452.0
sg3
S'ung_115_03'
p3207
sg5
g53
sa(dp3208
g2
F381.0
sg3
S'ung_115_04'
p3209
sg5
g53
sa(dp3210
g2
F585.0
sg3
S'ung_115_05'
p3211
sg5
g53
sa(dp3212
g2
F357.0
sg3
S'ung_115_06'
p3213
sg5
g53
sa(dp3214
g2
F416.0
sg3
S'ung_115_07'
p3215
sg5
g53
sa(dp3216
g2
F486.0
sg3
S'ung_115_08'
p3217
sg5
g53
sa(dp3218
g2
F399.0
sg3
S'ung_115_09'
p3219
sg5
g53
sa(dp3220
g2
F366.0
sg3
S'ung_115_10'
p3221
sg5
g53
sa(dp3222
g2
F714.0
sg3
S'ung_118_01'
p3223
sg5
g53
sa(dp3224
g2
F685.0
sg3
S'ung_118_02'
p3225
sg5
g53
sa(dp3226
g2
F497.0
sg3
S'ung_118_03'
p3227
sg5
g53
sa(dp3228
g2
F645.0
sg3
S'ung_118_04'
p3229
sg5
g53
sa(dp3230
g2
F708.0
sg3
S'ung_118_05'
p3231
sg5
g53
sa(dp3232
g2
F543.0
sg3
S'ung_118_06'
p3233
sg5
g53
sa(dp3234
g2
F696.0
sg3
S'ung_118_07'
p3235
sg5
g53
sa(dp3236
g2
F643.0
sg3
S'ung_118_08'
p3237
sg5
g53
sa(dp3238
g2
F480.0
sg3
S'ung_118_09'
p3239
sg5
g53
sa(dp3240
g2
F523.0
sg3
S'ung_118_10'
p3241
sg5
g53
sa(dp3242
g2
F691.0
sg3
S'ung_118_11'
p3243
sg5
g53
sa(dp3244
g2
F707.0
sg3
S'ung_118_12'
p3245
sg5
g53
sa(dp3246
g2
F681.0
sg3
S'ung_118_13'
p3247
sg5
g53
sa(dp3248
g2
F766.0
sg3
S'ung_118_14'
p3249
sg5
g53
sa(dp3250
g2
F640.0
sg3
S'ung_118_15'
p3251
sg5
g53
sa(dp3252
g2
F662.0
sg3
S'ung_118_16'
p3253
sg5
g53
sa(dp3254
g2
F646.0
sg3
S'ung_118_17'
p3255
sg5
g53
sa(dp3256
g2
F592.0
sg3
S'ung_118_18'
p3257
sg5
g53
sa(dp3258
g2
F612.0
sg3
S'ung_118_19'
p3259
sg5
g53
sa(dp3260
g2
F558.0
sg3
S'ung_118_20'
p3261
sg5
g53
sa(dp3262
g2
F754.0
sg3
S'ung_118_21'
p3263
sg5
g53
sa(dp3264
g2
F648.0
sg3
S'ung_118_22'
p3265
sg5
g53
sa(dp3266
g2
F654.0
sg3
S'ung_118_23'
p3267
sg5
g53
sa(dp3268
g2
F709.0
sg3
S'ung_118_24'
p3269
sg5
g53
sa(dp3270
g2
F586.0
sg3
S'ung_118_25'
p3271
sg5
g53
sa(dp3272
g2
F651.0
sg3
S'ung_118_26'
p3273
sg5
g53
sa(dp3274
g2
F653.0
sg3
S'ung_118_27'
p3275
sg5
g53
sa(dp3276
g2
F697.0
sg3
S'ung_118_28'
p3277
sg5
g53
sa(dp3278
g2
F583.0
sg3
S'ung_118_29'
p3279
sg5
g53
sa(dp3280
g2
F825.0
sg3
S'ung_118_30'
p3281
sg5
g53
sa(dp3282
g2
F208.0
sg3
S'ung_118_31'
p3283
sg5
g53
sa(dp3284
g2
F1877.0
sg3
S'ung_118_32'
p3285
sg5
g53
sa(dp3286
g2
F597.0
sg3
S'ung_11_01'
p3287
sg5
g6
sa(dp3288
g2
F1221.0
sg3
S'ung_120_01'
p3289
sg5
g53
sa(dp3290
g2
F1426.0
sg3
S'ung_120_02'
p3291
sg5
g53
sa(dp3292
g2
F1515.0
sg3
S'ung_120_03'
p3293
sg5
g53
sa(dp3294
g2
F6503.0
sg3
S'ung_120_04'
p3295
sg5
g53
sa(dp3296
g2
F1353.0
sg3
S'ung_120_05'
p3297
sg5
g53
sa(dp3298
g2
F1433.0
sg3
S'ung_120_06'
p3299
sg5
g53
sa(dp3300
g2
F1113.0
sg3
S'ung_120_07'
p3301
sg5
g53
sa(dp3302
g2
F1202.0
sg3
S'ung_120_08'
p3303
sg5
g53
sa(dp3304
g2
F1277.0
sg3
S'ung_120_09'
p3305
sg5
g53
sa(dp3306
g2
F1225.0
sg3
S'ung_120_10'
p3307
sg5
g53
sa(dp3308
g2
F1240.0
sg3
S'ung_120_11'
p3309
sg5
g53
sa(dp3310
g2
F1045.0
sg3
S'ung_120_12'
p3311
sg5
g53
sa(dp3312
g2
F1001.0
sg3
S'ung_120_13'
p3313
sg5
g53
sa(dp3314
g2
F1283.0
sg3
S'ung_120_14'
p3315
sg5
g53
sa(dp3316
g2
F1470.0
sg3
S'ung_120_15'
p3317
sg5
g53
sa(dp3318
g2
F1516.0
sg3
S'ung_120_16'
p3319
sg5
g53
sa(dp3320
g2
F1154.0
sg3
S'ung_120_17'
p3321
sg5
g53
sa(dp3322
g2
F1368.0
sg3
S'ung_120_18'
p3323
sg5
g53
sa(dp3324
g2
F12792.0
sg3
S'ung_120_19'
p3325
sg5
g53
sa(dp3326
g2
F10735.0
sg3
S'ung_120_20'
p3327
sg5
g53
sa(dp3328
g2
F3113.0
sg3
S'ung_120_21'
p3329
sg5
g53
sa(dp3330
g2
F1324.0
sg3
S'ung_120_22'
p3331
sg5
g53
sa(dp3332
g2
F633.0
sg3
S'ung_122_01'
p3333
sg5
g53
sa(dp3334
g2
F364.0
sg3
S'ung_122_02'
p3335
sg5
g53
sa(dp3336
g2
F669.0
sg3
S'ung_122_03'
p3337
sg5
g53
sa(dp3338
g2
F467.0
sg3
S'ung_122_04'
p3339
sg5
g53
sa(dp3340
g2
F486.0
sg3
S'ung_122_05'
p3341
sg5
g53
sa(dp3342
g2
F401.0
sg3
S'ung_122_06'
p3343
sg5
g53
sa(dp3344
g2
F422.0
sg3
S'ung_122_07'
p3345
sg5
g53
sa(dp3346
g2
F462.0
sg3
S'ung_122_08'
p3347
sg5
g53
sa(dp3348
g2
F451.0
sg3
S'ung_122_09'
p3349
sg5
g53
sa(dp3350
g2
F479.0
sg3
S'ung_122_10'
p3351
sg5
g53
sa(dp3352
g2
F99.0
sg3
S'ung_122_11'
p3353
sg5
g53
sa(dp3354
g2
F508.0
sg3
S'ung_122_12'
p3355
sg5
g53
sa(dp3356
g2
F507.0
sg3
S'ung_122_13'
p3357
sg5
g53
sa(dp3358
g2
F429.0
sg3
S'ung_122_14'
p3359
sg5
g53
sa(dp3360
g2
F522.0
sg3
S'ung_122_15'
p3361
sg5
g53
sa(dp3362
g2
F510.0
sg3
S'ung_122_16'
p3363
sg5
g53
sa(dp3364
g2
F524.0
sg3
S'ung_122_17'
p3365
sg5
g53
sa(dp3366
g2
F466.0
sg3
S'ung_122_18'
p3367
sg5
g53
sa(dp3368
g2
F509.0
sg3
S'ung_122_19'
p3369
sg5
g53
sa(dp3370
g2
F524.0
sg3
S'ung_122_20'
p3371
sg5
g53
sa(dp3372
g2
F519.0
sg3
S'ung_122_21'
p3373
sg5
g53
sa(dp3374
g2
F5371.0
sg3
S'ung_122_22'
p3375
sg5
g53
sa(dp3376
g2
F542.0
sg3
S'ung_122_23'
p3377
sg5
g53
sa(dp3378
g2
F532.0
sg3
S'ung_122_24'
p3379
sg5
g53
sa(dp3380
g2
F541.0
sg3
S'ung_122_25'
p3381
sg5
g53
sa(dp3382
g2
F522.0
sg3
S'ung_122_26'
p3383
sg5
g53
sa(dp3384
g2
F983.0
sg3
S'ung_122_27'
p3385
sg5
g53
sa(dp3386
g2
F931.0
sg3
S'ung_122_28'
p3387
sg5
g53
sa(dp3388
g2
F947.0
sg3
S'ung_122_29'
p3389
sg5
g53
sa(dp3390
g2
F1009.0
sg3
S'ung_122_30'
p3391
sg5
g53
sa(dp3392
g2
F935.0
sg3
S'ung_122_31'
p3393
sg5
g53
sa(dp3394
g2
F1041.0
sg3
S'ung_122_32'
p3395
sg5
g53
sa(dp3396
g2
F1291.0
sg3
S'ung_122_33'
p3397
sg5
g53
sa(dp3398
g2
F967.0
sg3
S'ung_122_34'
p3399
sg5
g53
sa(dp3400
g2
F1048.0
sg3
S'ung_122_35'
p3401
sg5
g53
sa(dp3402
g2
F1062.0
sg3
S'ung_122_36'
p3403
sg5
g53
sa(dp3404
g2
F958.0
sg3
S'ung_122_37'
p3405
sg5
g53
sa(dp3406
g2
F1006.0
sg3
S'ung_122_38'
p3407
sg5
g53
sa(dp3408
g2
F971.0
sg3
S'ung_122_39'
p3409
sg5
g53
sa(dp3410
g2
F530.0
sg3
S'ung_122_40'
p3411
sg5
g53
sa(dp3412
g2
F470.0
sg3
S'ung_122_41'
p3413
sg5
g53
sa(dp3414
g2
F540.0
sg3
S'ung_122_42'
p3415
sg5
g53
sa(dp3416
g2
F597.0
sg3
S'ung_122_43'
p3417
sg5
g53
sa(dp3418
g2
F661.0
sg3
S'ung_122_44'
p3419
sg5
g53
sa(dp3420
g2
F495.0
sg3
S'ung_122_45'
p3421
sg5
g53
sa(dp3422
g2
F501.0
sg3
S'ung_122_46'
p3423
sg5
g53
sa(dp3424
g2
F622.0
sg3
S'ung_122_47'
p3425
sg5
g53
sa(dp3426
g2
F445.0
sg3
S'ung_122_48'
p3427
sg5
g53
sa(dp3428
g2
F456.0
sg3
S'ung_122_49'
p3429
sg5
g53
sa(dp3430
g2
F528.0
sg3
S'ung_122_50'
p3431
sg5
g53
sa(dp3432
g2
F591.0
sg3
S'ung_122_51'
p3433
sg5
g53
sa(dp3434
g2
F508.0
sg3
S'ung_122_52'
p3435
sg5
g53
sa(dp3436
g2
F539.0
sg3
S'ung_122_53'
p3437
sg5
g53
sa(dp3438
g2
F420.0
sg3
S'ung_122_54'
p3439
sg5
g53
sa(dp3440
g2
F736.0
sg3
S'ung_122_55'
p3441
sg5
g53
sa(dp3442
g2
F501.0
sg3
S'ung_122_56'
p3443
sg5
g53
sa(dp3444
g2
F409.0
sg3
S'ung_122_57'
p3445
sg5
g53
sa(dp3446
g2
F364.0
sg3
S'ung_122_58'
p3447
sg5
g53
sa(dp3448
g2
F602.0
sg3
S'ung_122_59'
p3449
sg5
g53
sa(dp3450
g2
F406.0
sg3
S'ung_122_60'
p3451
sg5
g53
sa(dp3452
g2
F503.0
sg3
S'ung_122_61'
p3453
sg5
g53
sa(dp3454
g2
F474.0
sg3
S'ung_122_62'
p3455
sg5
g53
sa(dp3456
g2
F685.0
sg3
S'ung_122_63'
p3457
sg5
g53
sa(dp3458
g2
F578.0
sg3
S'ung_122_64'
p3459
sg5
g53
sa(dp3460
g2
F401.0
sg3
S'ung_122_65'
p3461
sg5
g53
sa(dp3462
g2
F672.0
sg3
S'ung_122_66'
p3463
sg5
g53
sa(dp3464
g2
F675.0
sg3
S'ung_122_67'
p3465
sg5
g53
sa(dp3466
g2
F660.0
sg3
S'ung_122_68'
p3467
sg5
g53
sa(dp3468
g2
F715.0
sg3
S'ung_123_01'
p3469
sg5
g6
sa(dp3470
g2
F759.0
sg3
S'ung_123_02'
p3471
sg5
g6
sa(dp3472
g2
F1853.0
sg3
S'ung_123_03'
p3473
sg5
g6
sa(dp3474
g2
F1669.0
sg3
S'ung_123_04'
p3475
sg5
g6
sa(dp3476
g2
F904.0
sg3
S'ung_123_05'
p3477
sg5
g6
sa(dp3478
g2
F835.0
sg3
S'ung_123_06'
p3479
sg5
g6
sa(dp3480
g2
F1560.0
sg3
S'ung_123_07'
p3481
sg5
g6
sa(dp3482
g2
F854.0
sg3
S'ung_123_08'
p3483
sg5
g6
sa(dp3484
g2
F840.0
sg3
S'ung_123_09'
p3485
sg5
g6
sa(dp3486
g2
F799.0
sg3
S'ung_123_10'
p3487
sg5
g6
sa(dp3488
g2
F627.0
sg3
S'ung_123_11'
p3489
sg5
g6
sa(dp3490
g2
F796.0
sg3
S'ung_123_12'
p3491
sg5
g6
sa(dp3492
g2
F673.0
sg3
S'ung_123_13'
p3493
sg5
g6
sa(dp3494
g2
F643.0
sg3
S'ung_124_01'
p3495
sg5
g6
sa(dp3496
g2
F1319.0
sg3
S'ung_124_02'
p3497
sg5
g6
sa(dp3498
g2
F961.0
sg3
S'ung_124_03'
p3499
sg5
g6
sa(dp3500
g2
F726.0
sg3
S'ung_124_04'
p3501
sg5
g6
sa(dp3502
g2
F789.0
sg3
S'ung_124_05'
p3503
sg5
g6
sa(dp3504
g2
F694.0
sg3
S'ung_124_06'
p3505
sg5
g6
sa(dp3506
g2
F1297.0
sg3
S'ung_124_07'
p3507
sg5
g6
sa(dp3508
g2
F786.0
sg3
S'ung_124_08'
p3509
sg5
g6
sa(dp3510
g2
F249.0
sg3
S'ung_124_10'
p3511
sg5
g6
sa(dp3512
g2
F998.0
sg3
S'ung_124_11'
p3513
sg5
g6
sa(dp3514
g2
F1485.0
sg3
S'ung_124_12'
p3515
sg5
g6
sa(dp3516
g2
F868.0
sg3
S'ung_124_13'
p3517
sg5
g6
sa(dp3518
g2
F4257.0
sg3
S'ung_125_01'
p3519
sg5
g6
sa(dp3520
g2
F4276.0
sg3
S'ung_125_02'
p3521
sg5
g6
sa(dp3522
g2
F4408.0
sg3
S'ung_125_03'
p3523
sg5
g6
sa(dp3524
g2
F4812.0
sg3
S'ung_125_04'
p3525
sg5
g6
sa(dp3526
g2
F2679.0
sg3
S'ung_125_05'
p3527
sg5
g6
sa(dp3528
g2
F4884.0
sg3
S'ung_125_06'
p3529
sg5
g6
sa(dp3530
g2
F362.0
sg3
S'ung_125_07'
p3531
sg5
g6
sa(dp3532
g2
F2593.0
sg3
S'ung_126_01'
p3533
sg5
g6
sa(dp3534
g2
F1758.0
sg3
S'ung_126_02'
p3535
sg5
g6
sa(dp3536
g2
F2583.0
sg3
S'ung_126_03'
p3537
sg5
g6
sa(dp3538
g2
F1657.0
sg3
S'ung_126_04'
p3539
sg5
g6
sa(dp3540
g2
F1559.0
sg3
S'ung_126_05'
p3541
sg5
g6
sa(dp3542
g2
F2507.0
sg3
S'ung_126_06'
p3543
sg5
g6
sa(dp3544
g2
F2516.0
sg3
S'ung_126_07'
p3545
sg5
g6
sa(dp3546
g2
F1536.0
sg3
S'ung_126_08'
p3547
sg5
g6
sa(dp3548
g2
F1780.0
sg3
S'ung_126_09'
p3549
sg5
g6
sa(dp3550
g2
F1253.0
sg3
S'ung_126_10'
p3551
sg5
g6
sa(dp3552
g2
F1829.0
sg3
S'ung_126_11'
p3553
sg5
g6
sa(dp3554
g2
F2417.0
sg3
S'ung_126_12'
p3555
sg5
g6
sa(dp3556
g2
F115.0
sg3
S'ung_126_13'
p3557
sg5
g6
sa(dp3558
g2
F6757.0
sg3
S'ung_126_14'
p3559
sg5
g6
sa(dp3560
g2
F253.0
sg3
S'ung_127_01'
p3561
sg5
g53
sa(dp3562
g2
F1760.0
sg3
S'ung_127_02'
p3563
sg5
g53
sa(dp3564
g2
F332.0
sg3
S'ung_127_03'
p3565
sg5
g53
sa(dp3566
g2
F446.0
sg3
S'ung_127_04'
p3567
sg5
g53
sa(dp3568
g2
F387.0
sg3
S'ung_127_05'
p3569
sg5
g53
sa(dp3570
g2
F173.0
sg3
S'ung_127_06'
p3571
sg5
g53
sa(dp3572
g2
F145.0
sg3
S'ung_127_07'
p3573
sg5
g53
sa(dp3574
g2
F139.0
sg3
S'ung_127_08'
p3575
sg5
g53
sa(dp3576
g2
F198.0
sg3
S'ung_127_09'
p3577
sg5
g53
sa(dp3578
g2
F168.0
sg3
S'ung_127_10'
p3579
sg5
g53
sa(dp3580
g2
F200.0
sg3
S'ung_127_11'
p3581
sg5
g53
sa(dp3582
g2
F177.0
sg3
S'ung_127_12'
p3583
sg5
g53
sa(dp3584
g2
F185.0
sg3
S'ung_127_13'
p3585
sg5
g53
sa(dp3586
g2
F151.0
sg3
S'ung_127_14'
p3587
sg5
g53
sa(dp3588
g2
F163.0
sg3
S'ung_127_15'
p3589
sg5
g53
sa(dp3590
g2
F258.0
sg3
S'ung_127_16'
p3591
sg5
g53
sa(dp3592
g2
F381.0
sg3
S'ung_127_17'
p3593
sg5
g53
sa(dp3594
g2
F393.0
sg3
S'ung_127_18'
p3595
sg5
g53
sa(dp3596
g2
F440.0
sg3
S'ung_127_19'
p3597
sg5
g53
sa(dp3598
g2
F360.0
sg3
S'ung_127_20'
p3599
sg5
g53
sa(dp3600
g2
F355.0
sg3
S'ung_127_21'
p3601
sg5
g53
sa(dp3602
g2
F359.0
sg3
S'ung_127_22'
p3603
sg5
g53
sa(dp3604
g2
F349.0
sg3
S'ung_127_23'
p3605
sg5
g53
sa(dp3606
g2
F339.0
sg3
S'ung_127_24'
p3607
sg5
g53
sa(dp3608
g2
F230.0
sg3
S'ung_127_25'
p3609
sg5
g53
sa(dp3610
g2
F246.0
sg3
S'ung_127_26'
p3611
sg5
g53
sa(dp3612
g2
F249.0
sg3
S'ung_127_27'
p3613
sg5
g53
sa(dp3614
g2
F217.0
sg3
S'ung_127_28'
p3615
sg5
g53
sa(dp3616
g2
F209.0
sg3
S'ung_127_29'
p3617
sg5
g53
sa(dp3618
g2
F240.0
sg3
S'ung_127_30'
p3619
sg5
g53
sa(dp3620
g2
F513.0
sg3
S'ung_127_31'
p3621
sg5
g53
sa(dp3622
g2
F328.0
sg3
S'ung_127_32'
p3623
sg5
g53
sa(dp3624
g2
F205.0
sg3
S'ung_127_33'
p3625
sg5
g53
sa(dp3626
g2
F203.0
sg3
S'ung_127_34'
p3627
sg5
g53
sa(dp3628
g2
F240.0
sg3
S'ung_127_35'
p3629
sg5
g53
sa(dp3630
g2
F215.0
sg3
S'ung_127_36'
p3631
sg5
g53
sa(dp3632
g2
F342.0
sg3
S'ung_127_37'
p3633
sg5
g53
sa(dp3634
g2
F191.0
sg3
S'ung_127_38'
p3635
sg5
g53
sa(dp3636
g2
F325.0
sg3
S'ung_128_01'
p3637
sg5
g53
sa(dp3638
g2
F167.0
sg3
S'ung_128_02'
p3639
sg5
g53
sa(dp3640
g2
F164.0
sg3
S'ung_128_03'
p3641
sg5
g53
sa(dp3642
g2
F136.0
sg3
S'ung_128_04'
p3643
sg5
g53
sa(dp3644
g2
F209.0
sg3
S'ung_128_05'
p3645
sg5
g53
sa(dp3646
g2
F197.0
sg3
S'ung_128_06'
p3647
sg5
g53
sa(dp3648
g2
F346.0
sg3
S'ung_128_07'
p3649
sg5
g53
sa(dp3650
g2
F330.0
sg3
S'ung_128_08'
p3651
sg5
g53
sa(dp3652
g2
F172.0
sg3
S'ung_128_09'
p3653
sg5
g53
sa(dp3654
g2
F427.0
sg3
S'ung_128_10'
p3655
sg5
g53
sa(dp3656
g2
F378.0
sg3
S'ung_128_11'
p3657
sg5
g53
sa(dp3658
g2
F523.0
sg3
S'ung_12_01'
p3659
sg5
g6
sa(dp3660
g2
F673.0
sg3
S'ung_12_02'
p3661
sg5
g6
sa(dp3662
g2
F565.0
sg3
S'ung_12_03'
p3663
sg5
g6
sa(dp3664
g2
F17799.0
sg3
S'ung_12_04'
p3665
sg5
g6
sa(dp3666
g2
F994.0
sg3
S'ung_131_01'
p3667
sg5
g6
sa(dp3668
g2
F1247.0
sg3
S'ung_131_02'
p3669
sg5
g6
sa(dp3670
g2
F1102.0
sg3
S'ung_131_03'
p3671
sg5
g6
sa(dp3672
g2
F1086.0
sg3
S'ung_131_04'
p3673
sg5
g6
sa(dp3674
g2
F1264.0
sg3
S'ung_131_05'
p3675
sg5
g6
sa(dp3676
g2
F1184.0
sg3
S'ung_131_06'
p3677
sg5
g6
sa(dp3678
g2
F691.0
sg3
S'ung_131_07'
p3679
sg5
g6
sa(dp3680
g2
F784.0
sg3
S'ung_131_08'
p3681
sg5
g6
sa(dp3682
g2
F2293.0
sg3
S'ung_131_09'
p3683
sg5
g6
sa(dp3684
g2
F1777.0
sg3
S'ung_131_10'
p3685
sg5
g6
sa(dp3686
g2
F1168.0
sg3
S'ung_131_11'
p3687
sg5
g6
sa(dp3688
g2
F767.0
sg3
S'ung_131_12'
p3689
sg5
g6
sa(dp3690
g2
F1316.0
sg3
S'ung_131_13'
p3691
sg5
g6
sa(dp3692
g2
F1932.0
sg3
S'ung_131_14'
p3693
sg5
g6
sa(dp3694
g2
F1413.0
sg3
S'ung_132_01'
p3695
sg5
g6
sa(dp3696
g2
F1141.0
sg3
S'ung_132_02'
p3697
sg5
g6
sa(dp3698
g2
F1477.0
sg3
S'ung_132_03'
p3699
sg5
g6
sa(dp3700
g2
F1350.0
sg3
S'ung_132_04'
p3701
sg5
g6
sa(dp3702
g2
F1316.0
sg3
S'ung_132_05'
p3703
sg5
g6
sa(dp3704
g2
F1328.0
sg3
S'ung_132_06'
p3705
sg5
g6
sa(dp3706
g2
F903.0
sg3
S'ung_132_07'
p3707
sg5
g6
sa(dp3708
g2
F1453.0
sg3
S'ung_132_08'
p3709
sg5
g6
sa(dp3710
g2
F1182.0
sg3
S'ung_132_09'
p3711
sg5
g6
sa(dp3712
g2
F1624.0
sg3
S'ung_132_10'
p3713
sg5
g6
sa(dp3714
g2
F1610.0
sg3
S'ung_132_11'
p3715
sg5
g6
sa(dp3716
g2
F1581.0
sg3
S'ung_132_12'
p3717
sg5
g6
sa(dp3718
g2
F9514.0
sg3
S'ung_132_13'
p3719
sg5
g6
sa(dp3720
g2
F7484.0
sg3
S'ung_132_14'
p3721
sg5
g6
sa(dp3722
g2
F6545.0
sg3
S'ung_132_15'
p3723
sg5
g6
sa(dp3724
g2
F9306.0
sg3
S'ung_132_16'
p3725
sg5
g6
sa(dp3726
g2
F268.0
sg3
S'ung_132_17'
p3727
sg5
g6
sa(dp3728
g2
F425.0
sg3
S'ung_132_18'
p3729
sg5
g6
sa(dp3730
g2
F271.0
sg3
S'ung_132_19'
p3731
sg5
g6
sa(dp3732
g2
F342.0
sg3
S'ung_132_20'
p3733
sg5
g6
sa(dp3734
g2
F354.0
sg3
S'ung_132_21'
p3735
sg5
g6
sa(dp3736
g2
F371.0
sg3
S'ung_132_22'
p3737
sg5
g6
sa(dp3738
g2
F746.0
sg3
S'ung_132_23'
p3739
sg5
g6
sa(dp3740
g2
F739.0
sg3
S'ung_132_24'
p3741
sg5
g6
sa(dp3742
g2
F556.0
sg3
S'ung_132_25'
p3743
sg5
g6
sa(dp3744
g2
F637.0
sg3
S'ung_132_26'
p3745
sg5
g6
sa(dp3746
g2
F727.0
sg3
S'ung_132_27'
p3747
sg5
g6
sa(dp3748
g2
F718.0
sg3
S'ung_132_28'
p3749
sg5
g6
sa(dp3750
g2
F777.0
sg3
S'ung_132_29'
p3751
sg5
g6
sa(dp3752
g2
F783.0
sg3
S'ung_132_30'
p3753
sg5
g6
sa(dp3754
g2
F718.0
sg3
S'ung_132_31'
p3755
sg5
g6
sa(dp3756
g2
F644.0
sg3
S'ung_132_32'
p3757
sg5
g6
sa(dp3758
g2
F411.0
sg3
S'ung_132_33'
p3759
sg5
g6
sa(dp3760
g2
F517.0
sg3
S'ung_132_34'
p3761
sg5
g6
sa(dp3762
g2
F1265.0
sg3
S'ung_132_35'
p3763
sg5
g6
sa(dp3764
g2
F3895.0
sg3
S'ung_132_36'
p3765
sg5
g6
sa(dp3766
g2
F6731.0
sg3
S'ung_132_37'
p3767
sg5
g6
sa(dp3768
g2
F180.0
sg3
S'ung_132_38'
p3769
sg5
g6
sa(dp3770
g2
F6249.0
sg3
S'ung_132_39'
p3771
sg5
g6
sa(dp3772
g2
F847.0
sg3
S'ung_132_40'
p3773
sg5
g6
sa(dp3774
g2
F6359.0
sg3
S'ung_132_41'
p3775
sg5
g6
sa(dp3776
g2
F690.0
sg3
S'ung_132_42'
p3777
sg5
g6
sa(dp3778
g2
F804.0
sg3
S'ung_132_43'
p3779
sg5
g6
sa(dp3780
g2
F5203.0
sg3
S'ung_132_44'
p3781
sg5
g6
sa(dp3782
g2
F1531.0
sg3
S'ung_132_45'
p3783
sg5
g6
sa(dp3784
g2
F1223.0
sg3
S'ung_132_46'
p3785
sg5
g6
sa(dp3786
g2
F1510.0
sg3
S'ung_132_47'
p3787
sg5
g6
sa(dp3788
g2
F1625.0
sg3
S'ung_132_48'
p3789
sg5
g6
sa(dp3790
g2
F1748.0
sg3
S'ung_132_49'
p3791
sg5
g6
sa(dp3792
g2
F2139.0
sg3
S'ung_132_50'
p3793
sg5
g6
sa(dp3794
g2
F174.0
sg3
S'ung_132_51'
p3795
sg5
g6
sa(dp3796
g2
F1335.0
sg3
S'ung_132_52'
p3797
sg5
g6
sa(dp3798
g2
F6502.0
sg3
S'ung_132_53'
p3799
sg5
g6
sa(dp3800
g2
F6029.0
sg3
S'ung_132_54'
p3801
sg5
g6
sa(dp3802
g2
F3095.0
sg3
S'ung_132_55'
p3803
sg5
g6
sa(dp3804
g2
F7084.0
sg3
S'ung_132_56'
p3805
sg5
g6
sa(dp3806
g2
F1375.0
sg3
S'ung_133_01'
p3807
sg5
g53
sa(dp3808
g2
F1434.0
sg3
S'ung_133_02'
p3809
sg5
g53
sa(dp3810
g2
F1259.0
sg3
S'ung_133_03'
p3811
sg5
g53
sa(dp3812
g2
F783.0
sg3
S'ung_133_04'
p3813
sg5
g53
sa(dp3814
g2
F976.0
sg3
S'ung_133_05'
p3815
sg5
g53
sa(dp3816
g2
F881.0
sg3
S'ung_133_06'
p3817
sg5
g53
sa(dp3818
g2
F982.0
sg3
S'ung_133_07'
p3819
sg5
g53
sa(dp3820
g2
F1231.0
sg3
S'ung_133_08'
p3821
sg5
g53
sa(dp3822
g2
F1729.0
sg3
S'ung_133_09'
p3823
sg5
g53
sa(dp3824
g2
F1323.0
sg3
S'ung_133_10'
p3825
sg5
g53
sa(dp3826
g2
F1062.0
sg3
S'ung_133_11'
p3827
sg5
g53
sa(dp3828
g2
F970.0
sg3
S'ung_133_12'
p3829
sg5
g53
sa(dp3830
g2
F1142.0
sg3
S'ung_133_13'
p3831
sg5
g53
sa(dp3832
g2
F888.0
sg3
S'ung_133_14'
p3833
sg5
g53
sa(dp3834
g2
F888.0
sg3
S'ung_133_15'
p3835
sg5
g53
sa(dp3836
g2
F505.0
sg3
S'ung_133_16'
p3837
sg5
g53
sa(dp3838
g2
F577.0
sg3
S'ung_133_17'
p3839
sg5
g53
sa(dp3840
g2
F469.0
sg3
S'ung_133_18'
p3841
sg5
g53
sa(dp3842
g2
F834.0
sg3
S'ung_133_19'
p3843
sg5
g53
sa(dp3844
g2
F1091.0
sg3
S'ung_133_20'
p3845
sg5
g53
sa(dp3846
g2
F786.0
sg3
S'ung_133_21'
p3847
sg5
g53
sa(dp3848
g2
F759.0
sg3
S'ung_133_22'
p3849
sg5
g53
sa(dp3850
g2
F848.0
sg3
S'ung_133_23'
p3851
sg5
g53
sa(dp3852
g2
F946.0
sg3
S'ung_133_24'
p3853
sg5
g53
sa(dp3854
g2
F410.0
sg3
S'ung_133_25'
p3855
sg5
g53
sa(dp3856
g2
F1233.0
sg3
S'ung_133_26'
p3857
sg5
g53
sa(dp3858
g2
F357.0
sg3
S'ung_134_01'
p3859
sg5
g6
sa(dp3860
g2
F263.0
sg3
S'ung_134_02'
p3861
sg5
g6
sa(dp3862
g2
F399.0
sg3
S'ung_134_03'
p3863
sg5
g6
sa(dp3864
g2
F191.0
sg3
S'ung_134_04'
p3865
sg5
g6
sa(dp3866
g2
F324.0
sg3
S'ung_134_05'
p3867
sg5
g6
sa(dp3868
g2
F299.0
sg3
S'ung_134_06'
p3869
sg5
g6
sa(dp3870
g2
F302.0
sg3
S'ung_134_07'
p3871
sg5
g6
sa(dp3872
g2
F260.0
sg3
S'ung_134_08'
p3873
sg5
g6
sa(dp3874
g2
F202.0
sg3
S'ung_134_09'
p3875
sg5
g6
sa(dp3876
g2
F342.0
sg3
S'ung_134_10'
p3877
sg5
g6
sa(dp3878
g2
F341.0
sg3
S'ung_134_11'
p3879
sg5
g6
sa(dp3880
g2
F368.0
sg3
S'ung_134_12'
p3881
sg5
g6
sa(dp3882
g2
F441.0
sg3
S'ung_134_13'
p3883
sg5
g6
sa(dp3884
g2
F474.0
sg3
S'ung_134_14'
p3885
sg5
g6
sa(dp3886
g2
F258.0
sg3
S'ung_134_15'
p3887
sg5
g6
sa(dp3888
g2
F6116.0
sg3
S'ung_135_01'
p3889
sg5
g6
sa(dp3890
g2
F5202.0
sg3
S'ung_135_02'
p3891
sg5
g6
sa(dp3892
g2
F2749.0
sg3
S'ung_135_03'
p3893
sg5
g6
sa(dp3894
g2
F1316.0
sg3
S'ung_135_04'
p3895
sg5
g6
sa(dp3896
g2
F2460.0
sg3
S'ung_135_05'
p3897
sg5
g6
sa(dp3898
g2
F3261.0
sg3
S'ung_135_06'
p3899
sg5
g6
sa(dp3900
g2
F1472.0
sg3
S'ung_135_07'
p3901
sg5
g6
sa(dp3902
g2
F291.0
sg3
S'ung_135_08'
p3903
sg5
g6
sa(dp3904
g2
F2150.0
sg3
S'ung_135_09'
p3905
sg5
g6
sa(dp3906
g2
F2001.0
sg3
S'ung_135_10'
p3907
sg5
g6
sa(dp3908
g2
F2446.0
sg3
S'ung_135_11'
p3909
sg5
g6
sa(dp3910
g2
F872.0
sg3
S'ung_136_01'
p3911
sg5
g6
sa(dp3912
g2
F860.0
sg3
S'ung_136_02'
p3913
sg5
g6
sa(dp3914
g2
F1195.0
sg3
S'ung_136_03'
p3915
sg5
g6
sa(dp3916
g2
F1268.0
sg3
S'ung_136_04'
p3917
sg5
g6
sa(dp3918
g2
F1022.0
sg3
S'ung_136_05'
p3919
sg5
g6
sa(dp3920
g2
F943.0
sg3
S'ung_136_06'
p3921
sg5
g6
sa(dp3922
g2
F1107.0
sg3
S'ung_136_07'
p3923
sg5
g6
sa(dp3924
g2
F1332.0
sg3
S'ung_136_08'
p3925
sg5
g6
sa(dp3926
g2
F1130.0
sg3
S'ung_136_09'
p3927
sg5
g6
sa(dp3928
g2
F1337.0
sg3
S'ung_136_10'
p3929
sg5
g6
sa(dp3930
g2
F1438.0
sg3
S'ung_136_11'
p3931
sg5
g6
sa(dp3932
g2
F1307.0
sg3
S'ung_136_12'
p3933
sg5
g6
sa(dp3934
g2
F1252.0
sg3
S'ung_136_13'
p3935
sg5
g6
sa(dp3936
g2
F1065.0
sg3
S'ung_136_14'
p3937
sg5
g6
sa(dp3938
g2
F1350.0
sg3
S'ung_136_15'
p3939
sg5
g6
sa(dp3940
g2
F1259.0
sg3
S'ung_136_16'
p3941
sg5
g6
sa(dp3942
g2
F2120.0
sg3
S'ung_136_17'
p3943
sg5
g6
sa(dp3944
g2
F1492.0
sg3
S'ung_136_18'
p3945
sg5
g6
sa(dp3946
g2
F993.0
sg3
S'ung_136_20'
p3947
sg5
g6
sa(dp3948
g2
F601.0
sg3
S'ung_136_21'
p3949
sg5
g6
sa(dp3950
g2
F836.0
sg3
S'ung_136_22'
p3951
sg5
g6
sa(dp3952
g2
F742.0
sg3
S'ung_136_23'
p3953
sg5
g6
sa(dp3954
g2
F1075.0
sg3
S'ung_136_24'
p3955
sg5
g6
sa(dp3956
g2
F1789.0
sg3
S'ung_136_25'
p3957
sg5
g6
sa(dp3958
g2
F1422.0
sg3
S'ung_136_26'
p3959
sg5
g6
sa(dp3960
g2
F1087.0
sg3
S'ung_136_27'
p3961
sg5
g6
sa(dp3962
g2
F1114.0
sg3
S'ung_136_28'
p3963
sg5
g6
sa(dp3964
g2
F1182.0
sg3
S'ung_136_29'
p3965
sg5
g6
sa(dp3966
g2
F1272.0
sg3
S'ung_136_30'
p3967
sg5
g6
sa(dp3968
g2
F1436.0
sg3
S'ung_136_31'
p3969
sg5
g6
sa(dp3970
g2
F1443.0
sg3
S'ung_136_32'
p3971
sg5
g6
sa(dp3972
g2
F986.0
sg3
S'ung_136_33'
p3973
sg5
g6
sa(dp3974
g2
F2163.0
sg3
S'ung_137_01'
p3975
sg5
g6
sa(dp3976
g2
F2167.0
sg3
S'ung_137_02'
p3977
sg5
g6
sa(dp3978
g2
F6541.0
sg3
S'ung_137_03'
p3979
sg5
g6
sa(dp3980
g2
F1937.0
sg3
S'ung_137_04'
p3981
sg5
g6
sa(dp3982
g2
F1759.0
sg3
S'ung_137_05'
p3983
sg5
g6
sa(dp3984
g2
F1629.0
sg3
S'ung_137_06'
p3985
sg5
g6
sa(dp3986
g2
F4775.0
sg3
S'ung_137_07'
p3987
sg5
g6
sa(dp3988
g2
F1938.0
sg3
S'ung_137_08'
p3989
sg5
g6
sa(dp3990
g2
F2470.0
sg3
S'ung_137_09'
p3991
sg5
g6
sa(dp3992
g2
F2246.0
sg3
S'ung_137_10'
p3993
sg5
g6
sa(dp3994
g2
F4930.0
sg3
S'ung_137_11'
p3995
sg5
g6
sa(dp3996
g2
F1969.0
sg3
S'ung_137_12'
p3997
sg5
g6
sa(dp3998
g2
F2963.0
sg3
S'ung_137_13'
p3999
sg5
g6
sa(dp4000
g2
F2264.0
sg3
S'ung_137_14'
p4001
sg5
g6
sa(dp4002
g2
F5382.0
sg3
S'ung_137_15'
p4003
sg5
g6
sa(dp4004
g2
F1532.0
sg3
S'ung_137_16'
p4005
sg5
g6
sa(dp4006
g2
F1948.0
sg3
S'ung_137_17'
p4007
sg5
g6
sa(dp4008
g2
F1395.0
sg3
S'ung_137_18'
p4009
sg5
g6
sa(dp4010
g2
F5321.0
sg3
S'ung_137_19'
p4011
sg5
g6
sa(dp4012
g2
F1603.0
sg3
S'ung_137_20'
p4013
sg5
g6
sa(dp4014
g2
F1914.0
sg3
S'ung_137_21'
p4015
sg5
g6
sa(dp4016
g2
F1642.0
sg3
S'ung_137_22'
p4017
sg5
g6
sa(dp4018
g2
F4548.0
sg3
S'ung_137_23'
p4019
sg5
g6
sa(dp4020
g2
F1193.0
sg3
S'ung_137_24'
p4021
sg5
g6
sa(dp4022
g2
F155.0
sg3
S'ung_137_25'
p4023
sg5
g6
sa(dp4024
g2
F1574.0
sg3
S'ung_137_26'
p4025
sg5
g6
sa(dp4026
g2
F1161.0
sg3
S'ung_137_27'
p4027
sg5
g6
sa(dp4028
g2
F3722.0
sg3
S'ung_137_28'
p4029
sg5
g6
sa(dp4030
g2
F1128.0
sg3
S'ung_137_29'
p4031
sg5
g6
sa(dp4032
g2
F3516.0
sg3
S'ung_137_30'
p4033
sg5
g6
sa(dp4034
g2
F3368.0
sg3
S'ung_137_31'
p4035
sg5
g6
sa(dp4036
g2
F5018.0
sg3
S'ung_137_32'
p4037
sg5
g6
sa(dp4038
g2
F3064.0
sg3
S'ung_137_33'
p4039
sg5
g6
sa(dp4040
g2
F896.0
sg3
S'ung_137_34'
p4041
sg5
g6
sa(dp4042
g2
F2492.0
sg3
S'ung_137_35'
p4043
sg5
g6
sa(dp4044
g2
F2556.0
sg3
S'ung_137_36'
p4045
sg5
g6
sa(dp4046
g2
F5117.0
sg3
S'ung_137_37'
p4047
sg5
g6
sa(dp4048
g2
F2019.0
sg3
S'ung_137_38'
p4049
sg5
g6
sa(dp4050
g2
F2934.0
sg3
S'ung_137_39'
p4051
sg5
g6
sa(dp4052
g2
F2038.0
sg3
S'ung_137_40'
p4053
sg5
g6
sa(dp4054
g2
F5194.0
sg3
S'ung_137_41'
p4055
sg5
g6
sa(dp4056
g2
F2182.0
sg3
S'ung_137_42'
p4057
sg5
g6
sa(dp4058
g2
F806.0
sg3
S'ung_138_01'
p4059
sg5
g53
sa(dp4060
g2
F779.0
sg3
S'ung_138_02'
p4061
sg5
g53
sa(dp4062
g2
F680.0
sg3
S'ung_138_03'
p4063
sg5
g53
sa(dp4064
g2
F701.0
sg3
S'ung_138_04'
p4065
sg5
g53
sa(dp4066
g2
F371.0
sg3
S'ung_138_05'
p4067
sg5
g53
sa(dp4068
g2
F398.0
sg3
S'ung_138_06'
p4069
sg5
g53
sa(dp4070
g2
F385.0
sg3
S'ung_138_07'
p4071
sg5
g53
sa(dp4072
g2
F401.0
sg3
S'ung_138_08'
p4073
sg5
g53
sa(dp4074
g2
F427.0
sg3
S'ung_138_09'
p4075
sg5
g53
sa(dp4076
g2
F437.0
sg3
S'ung_138_10'
p4077
sg5
g53
sa(dp4078
g2
F442.0
sg3
S'ung_138_11'
p4079
sg5
g53
sa(dp4080
g2
F325.0
sg3
S'ung_138_12'
p4081
sg5
g53
sa(dp4082
g2
F432.0
sg3
S'ung_138_13'
p4083
sg5
g53
sa(dp4084
g2
F420.0
sg3
S'ung_138_14'
p4085
sg5
g53
sa(dp4086
g2
F413.0
sg3
S'ung_138_15'
p4087
sg5
g53
sa(dp4088
g2
F428.0
sg3
S'ung_138_16'
p4089
sg5
g53
sa(dp4090
g2
F440.0
sg3
S'ung_138_17'
p4091
sg5
g53
sa(dp4092
g2
F387.0
sg3
S'ung_138_18'
p4093
sg5
g53
sa(dp4094
g2
F460.0
sg3
S'ung_138_19'
p4095
sg5
g53
sa(dp4096
g2
F450.0
sg3
S'ung_138_20'
p4097
sg5
g53
sa(dp4098
g2
F395.0
sg3
S'ung_138_21'
p4099
sg5
g53
sa(dp4100
g2
F386.0
sg3
S'ung_138_22'
p4101
sg5
g53
sa(dp4102
g2
F459.0
sg3
S'ung_138_23'
p4103
sg5
g53
sa(dp4104
g2
F503.0
sg3
S'ung_138_24'
p4105
sg5
g53
sa(dp4106
g2
F357.0
sg3
S'ung_138_25'
p4107
sg5
g53
sa(dp4108
g2
F948.0
sg3
S'ung_138_26'
p4109
sg5
g53
sa(dp4110
g2
F938.0
sg3
S'ung_138_27'
p4111
sg5
g53
sa(dp4112
g2
F958.0
sg3
S'ung_138_28'
p4113
sg5
g53
sa(dp4114
g2
F815.0
sg3
S'ung_138_29'
p4115
sg5
g53
sa(dp4116
g2
F1086.0
sg3
S'ung_138_30'
p4117
sg5
g53
sa(dp4118
g2
F909.0
sg3
S'ung_138_32'
p4119
sg5
g53
sa(dp4120
g2
F1045.0
sg3
S'ung_138_33'
p4121
sg5
g53
sa(dp4122
g2
F923.0
sg3
S'ung_138_34'
p4123
sg5
g53
sa(dp4124
g2
F909.0
sg3
S'ung_138_35'
p4125
sg5
g53
sa(dp4126
g2
F1079.0
sg3
S'ung_138_36'
p4127
sg5
g53
sa(dp4128
g2
F809.0
sg3
S'ung_138_37'
p4129
sg5
g53
sa(dp4130
g2
F965.0
sg3
S'ung_138_38'
p4131
sg5
g53
sa(dp4132
g2
F877.0
sg3
S'ung_138_39'
p4133
sg5
g53
sa(dp4134
g2
F819.0
sg3
S'ung_138_40'
p4135
sg5
g53
sa(dp4136
g2
F784.0
sg3
S'ung_138_41'
p4137
sg5
g53
sa(dp4138
g2
F921.0
sg3
S'ung_138_42'
p4139
sg5
g53
sa(dp4140
g2
F1010.0
sg3
S'ung_138_44'
p4141
sg5
g53
sa(dp4142
g2
F316.0
sg3
S'ung_138_46'
p4143
sg5
g53
sa(dp4144
g2
F683.0
sg3
S'ung_138_47'
p4145
sg5
g53
sa(dp4146
g2
F630.0
sg3
S'ung_138_48'
p4147
sg5
g53
sa(dp4148
g2
F703.0
sg3
S'ung_138_51'
p4149
sg5
g53
sa(dp4150
g2
F870.0
sg3
S'ung_138_52'
p4151
sg5
g53
sa(dp4152
g2
F755.0
sg3
S'ung_138_53'
p4153
sg5
g53
sa(dp4154
g2
F396.0
sg3
S'ung_138_55'
p4155
sg5
g53
sa(dp4156
g2
F1090.0
sg3
S'ung_139_01'
p4157
sg5
g6
sa(dp4158
g2
F937.0
sg3
S'ung_139_02'
p4159
sg5
g6
sa(dp4160
g2
F984.0
sg3
S'ung_139_03'
p4161
sg5
g6
sa(dp4162
g2
F883.0
sg3
S'ung_139_04'
p4163
sg5
g6
sa(dp4164
g2
F511.0
sg3
S'ung_139_05'
p4165
sg5
g6
sa(dp4166
g2
F1352.0
sg3
S'ung_139_06'
p4167
sg5
g6
sa(dp4168
g2
F505.0
sg3
S'ung_139_07'
p4169
sg5
g6
sa(dp4170
g2
F1008.0
sg3
S'ung_139_08'
p4171
sg5
g6
sa(dp4172
g2
F988.0
sg3
S'ung_139_09'
p4173
sg5
g6
sa(dp4174
g2
F690.0
sg3
S'ung_139_10'
p4175
sg5
g6
sa(dp4176
g2
F320.0
sg3
S'ung_139_11'
p4177
sg5
g6
sa(dp4178
g2
F978.0
sg3
S'ung_139_12'
p4179
sg5
g6
sa(dp4180
g2
F1387.0
sg3
S'ung_139_13'
p4181
sg5
g6
sa(dp4182
g2
F990.0
sg3
S'ung_139_14'
p4183
sg5
g6
sa(dp4184
g2
F1078.0
sg3
S'ung_139_15'
p4185
sg5
g6
sa(dp4186
g2
F653.0
sg3
S'ung_139_16'
p4187
sg5
g6
sa(dp4188
g2
F719.0
sg3
S'ung_139_17'
p4189
sg5
g6
sa(dp4190
g2
F854.0
sg3
S'ung_139_18'
p4191
sg5
g6
sa(dp4192
g2
F1000.0
sg3
S'ung_139_19'
p4193
sg5
g6
sa(dp4194
g2
F1570.0
sg3
S'ung_139_20'
p4195
sg5
g6
sa(dp4196
g2
F1310.0
sg3
S'ung_139_21'
p4197
sg5
g6
sa(dp4198
g2
F1425.0
sg3
S'ung_139_22'
p4199
sg5
g6
sa(dp4200
g2
F1592.0
sg3
S'ung_139_23'
p4201
sg5
g6
sa(dp4202
g2
F716.0
sg3
S'ung_139_24'
p4203
sg5
g6
sa(dp4204
g2
F663.0
sg3
S'ung_139_25'
p4205
sg5
g6
sa(dp4206
g2
F651.0
sg3
S'ung_139_26'
p4207
sg5
g6
sa(dp4208
g2
F727.0
sg3
S'ung_139_27'
p4209
sg5
g6
sa(dp4210
g2
F2970.0
sg3
S'ung_139_28'
p4211
sg5
g6
sa(dp4212
g2
F2104.0
sg3
S'ung_139_29'
p4213
sg5
g6
sa(dp4214
g2
F1261.0
sg3
S'ung_139_30'
p4215
sg5
g6
sa(dp4216
g2
F2106.0
sg3
S'ung_139_31'
p4217
sg5
g6
sa(dp4218
g2
F1894.0
sg3
S'ung_139_32'
p4219
sg5
g6
sa(dp4220
g2
F2997.0
sg3
S'ung_139_33'
p4221
sg5
g6
sa(dp4222
g2
F1122.0
sg3
S'ung_139_34'
p4223
sg5
g6
sa(dp4224
g2
F830.0
sg3
S'ung_140_01'
p4225
sg5
g6
sa(dp4226
g2
F937.0
sg3
S'ung_140_02'
p4227
sg5
g6
sa(dp4228
g2
F1023.0
sg3
S'ung_140_03'
p4229
sg5
g6
sa(dp4230
g2
F1103.0
sg3
S'ung_140_04'
p4231
sg5
g6
sa(dp4232
g2
F27.0
sg3
S'ung_140_05'
p4233
sg5
g6
sa(dp4234
g2
F3562.0
sg3
S'ung_140_06'
p4235
sg5
g6
sa(dp4236
g2
F1235.0
sg3
S'ung_140_07'
p4237
sg5
g6
sa(dp4238
g2
F898.0
sg3
S'ung_140_08'
p4239
sg5
g6
sa(dp4240
g2
F815.0
sg3
S'ung_140_09'
p4241
sg5
g6
sa(dp4242
g2
F5241.0
sg3
S'ung_142_01'
p4243
sg5
g6
sa(dp4244
g2
F1882.0
sg3
S'ung_142_02'
p4245
sg5
g6
sa(dp4246
g2
F2427.0
sg3
S'ung_142_03'
p4247
sg5
g6
sa(dp4248
g2
F3731.0
sg3
S'ung_142_04'
p4249
sg5
g6
sa(dp4250
g2
F6732.0
sg3
S'ung_142_05'
p4251
sg5
g6
sa(dp4252
g2
F2644.0
sg3
S'ung_142_06'
p4253
sg5
g6
sa(dp4254
g2
F8386.0
sg3
S'ung_142_07'
p4255
sg5
g6
sa(dp4256
g2
F3033.0
sg3
S'ung_142_08'
p4257
sg5
g6
sa(dp4258
g2
F2666.0
sg3
S'ung_142_09'
p4259
sg5
g6
sa(dp4260
g2
F4508.0
sg3
S'ung_142_10'
p4261
sg5
g6
sa(dp4262
g2
F3277.0
sg3
S'ung_142_11'
p4263
sg5
g6
sa(dp4264
g2
F4702.0
sg3
S'ung_142_12'
p4265
sg5
g6
sa(dp4266
g2
F5159.0
sg3
S'ung_142_13'
p4267
sg5
g6
sa(dp4268
g2
F1663.0
sg3
S'ung_142_14'
p4269
sg5
g6
sa(dp4270
g2
F5374.0
sg3
S'ung_142_15'
p4271
sg5
g6
sa(dp4272
g2
F5818.0
sg3
S'ung_142_16'
p4273
sg5
g6
sa(dp4274
g2
F4431.0
sg3
S'ung_142_17'
p4275
sg5
g6
sa(dp4276
g2
F4897.0
sg3
S'ung_142_18'
p4277
sg5
g6
sa(dp4278
g2
F4493.0
sg3
S'ung_142_19'
p4279
sg5
g6
sa(dp4280
g2
F1534.0
sg3
S'ung_142_20'
p4281
sg5
g6
sa(dp4282
g2
F1412.0
sg3
S'ung_142_21'
p4283
sg5
g6
sa(dp4284
g2
F5221.0
sg3
S'ung_142_22'
p4285
sg5
g6
sa(dp4286
g2
F100.0
sg3
S'ung_143_01'
p4287
sg5
g6
sa(dp4288
g2
F208.0
sg3
S'ung_143_02'
p4289
sg5
g6
sa(dp4290
g2
F239.0
sg3
S'ung_143_03'
p4291
sg5
g6
sa(dp4292
g2
F1085.0
sg3
S'ung_143_04'
p4293
sg5
g6
sa(dp4294
g2
F338.0
sg3
S'ung_143_05'
p4295
sg5
g6
sa(dp4296
g2
F393.0
sg3
S'ung_143_06'
p4297
sg5
g6
sa(dp4298
g2
F557.0
sg3
S'ung_143_07'
p4299
sg5
g6
sa(dp4300
g2
F387.0
sg3
S'ung_143_08'
p4301
sg5
g6
sa(dp4302
g2
F545.0
sg3
S'ung_143_09'
p4303
sg5
g6
sa(dp4304
g2
F575.0
sg3
S'ung_143_10'
p4305
sg5
g6
sa(dp4306
g2
F657.0
sg3
S'ung_143_11'
p4307
sg5
g6
sa(dp4308
g2
F590.0
sg3
S'ung_143_12'
p4309
sg5
g6
sa(dp4310
g2
F581.0
sg3
S'ung_143_13'
p4311
sg5
g6
sa(dp4312
g2
F725.0
sg3
S'ung_143_14'
p4313
sg5
g6
sa(dp4314
g2
F708.0
sg3
S'ung_143_15'
p4315
sg5
g6
sa(dp4316
g2
F611.0
sg3
S'ung_143_16'
p4317
sg5
g6
sa(dp4318
g2
F632.0
sg3
S'ung_143_17'
p4319
sg5
g6
sa(dp4320
g2
F752.0
sg3
S'ung_143_18'
p4321
sg5
g6
sa(dp4322
g2
F839.0
sg3
S'ung_143_19'
p4323
sg5
g6
sa(dp4324
g2
F651.0
sg3
S'ung_143_20'
p4325
sg5
g6
sa(dp4326
g2
F2152.0
sg3
S'ung_143_21'
p4327
sg5
g6
sa(dp4328
g2
F1091.0
sg3
S'ung_143_22'
p4329
sg5
g6
sa(dp4330
g2
F814.0
sg3
S'ung_143_23'
p4331
sg5
g6
sa(dp4332
g2
F1005.0
sg3
S'ung_143_24'
p4333
sg5
g6
sa(dp4334
g2
F658.0
sg3
S'ung_143_25'
p4335
sg5
g6
sa(dp4336
g2
F635.0
sg3
S'ung_143_26'
p4337
sg5
g6
sa(dp4338
g2
F704.0
sg3
S'ung_143_27'
p4339
sg5
g6
sa(dp4340
g2
F643.0
sg3
S'ung_143_28'
p4341
sg5
g6
sa(dp4342
g2
F1080.0
sg3
S'ung_143_29'
p4343
sg5
g6
sa(dp4344
g2
F370.0
sg3
S'ung_143_30'
p4345
sg5
g6
sa(dp4346
g2
F423.0
sg3
S'ung_143_31'
p4347
sg5
g6
sa(dp4348
g2
F780.0
sg3
S'ung_143_32'
p4349
sg5
g6
sa(dp4350
g2
F361.0
sg3
S'ung_143_33'
p4351
sg5
g6
sa(dp4352
g2
F783.0
sg3
S'ung_143_34'
p4353
sg5
g6
sa(dp4354
g2
F1279.0
sg3
S'ung_143_35'
p4355
sg5
g6
sa(dp4356
g2
F761.0
sg3
S'ung_143_36'
p4357
sg5
g6
sa(dp4358
g2
F551.0
sg3
S'ung_143_37'
p4359
sg5
g6
sa(dp4360
g2
F1317.0
sg3
S'ung_143_38'
p4361
sg5
g6
sa(dp4362
g2
F1083.0
sg3
S'ung_143_39'
p4363
sg5
g6
sa(dp4364
g2
F966.0
sg3
S'ung_143_40'
p4365
sg5
g6
sa(dp4366
g2
F1167.0
sg3
S'ung_143_41'
p4367
sg5
g6
sa(dp4368
g2
F537.0
sg3
S'ung_143_42'
p4369
sg5
g6
sa(dp4370
g2
F2459.0
sg3
S'ung_144_01'
p4371
sg5
g6
sa(dp4372
g2
F2324.0
sg3
S'ung_144_02'
p4373
sg5
g6
sa(dp4374
g2
F4479.0
sg3
S'ung_144_03'
p4375
sg5
g6
sa(dp4376
g2
F3874.0
sg3
S'ung_144_04'
p4377
sg5
g6
sa(dp4378
g2
F2786.0
sg3
S'ung_144_05'
p4379
sg5
g6
sa(dp4380
g2
F3633.0
sg3
S'ung_144_06'
p4381
sg5
g6
sa(dp4382
g2
F2448.0
sg3
S'ung_144_07'
p4383
sg5
g6
sa(dp4384
g2
F3001.0
sg3
S'ung_144_08'
p4385
sg5
g6
sa(dp4386
g2
F3382.0
sg3
S'ung_144_09'
p4387
sg5
g6
sa(dp4388
g2
F3498.0
sg3
S'ung_144_10'
p4389
sg5
g6
sa(dp4390
g2
F3429.0
sg3
S'ung_144_11'
p4391
sg5
g6
sa(dp4392
g2
F3319.0
sg3
S'ung_144_12'
p4393
sg5
g6
sa(dp4394
g2
F1946.0
sg3
S'ung_144_13'
p4395
sg5
g6
sa(dp4396
g2
F2055.0
sg3
S'ung_144_14'
p4397
sg5
g6
sa(dp4398
g2
F3302.0
sg3
S'ung_144_15'
p4399
sg5
g6
sa(dp4400
g2
F3088.0
sg3
S'ung_144_16'
p4401
sg5
g6
sa(dp4402
g2
F2820.0
sg3
S'ung_144_17'
p4403
sg5
g6
sa(dp4404
g2
F3096.0
sg3
S'ung_144_18'
p4405
sg5
g6
sa(dp4406
g2
F347.0
sg3
S'ung_144_19'
p4407
sg5
g6
sa(dp4408
g2
F2270.0
sg3
S'ung_144_20'
p4409
sg5
g6
sa(dp4410
g2
F1930.0
sg3
S'ung_144_21'
p4411
sg5
g6
sa(dp4412
g2
F3339.0
sg3
S'ung_144_22'
p4413
sg5
g6
sa(dp4414
g2
F3409.0
sg3
S'ung_144_23'
p4415
sg5
g6
sa(dp4416
g2
F4701.0
sg3
S'ung_144_24'
p4417
sg5
g6
sa(dp4418
g2
F3335.0
sg3
S'ung_144_25'
p4419
sg5
g6
sa(dp4420
g2
F3347.0
sg3
S'ung_144_26'
p4421
sg5
g6
sa(dp4422
g2
F2655.0
sg3
S'ung_144_27'
p4423
sg5
g6
sa(dp4424
g2
F2286.0
sg3
S'ung_144_28'
p4425
sg5
g6
sa(dp4426
g2
F3083.0
sg3
S'ung_144_29'
p4427
sg5
g6
sa(dp4428
g2
F4955.0
sg3
S'ung_144_30'
p4429
sg5
g6
sa(dp4430
g2
F4833.0
sg3
S'ung_144_31'
p4431
sg5
g6
sa(dp4432
g2
F5202.0
sg3
S'ung_144_32'
p4433
sg5
g6
sa(dp4434
g2
F5014.0
sg3
S'ung_144_33'
p4435
sg5
g6
sa(dp4436
g2
F4688.0
sg3
S'ung_144_34'
p4437
sg5
g6
sa(dp4438
g2
F4387.0
sg3
S'ung_41_02'
p4439
sg5
g6
sa(dp4440
g2
F5952.0
sg3
S'ung_41_03'
p4441
sg5
g6
sa(dp4442
g2
F7067.0
sg3
S'ung_41_04'
p4443
sg5
g6
sa(dp4444
g2
F7225.0
sg3
S'ung_41_05'
p4445
sg5
g6
sa(dp4446
g2
F7105.0
sg3
S'ung_41_06'
p4447
sg5
g6
sa(dp4448
g2
F7536.0
sg3
S'ung_41_07'
p4449
sg5
g6
sa(dp4450
g2
F7948.0
sg3
S'ung_41_08'
p4451
sg5
g6
sa(dp4452
g2
F7718.0
sg3
S'ung_41_09'
p4453
sg5
g6
sa(dp4454
g2
F3909.0
sg3
S'ung_41_10'
p4455
sg5
g6
sa(dp4456
g2
F3151.0
sg3
S'ung_41_11'
p4457
sg5
g6
sa(dp4458
g2
F1134.0
sg3
S'ung_42_01'
p4459
sg5
g6
sa(dp4460
g2
F1319.0
sg3
S'ung_47_01'
p4461
sg5
g6
sa(dp4462
g2
F652.0
sg3
S'ung_49_01'
p4463
sg5
g6
sa(dp4464
g2
F2085.0
sg3
S'ung_49_02'
p4465
sg5
g6
sa(dp4466
g2
F1504.0
sg3
S'ung_49_03'
p4467
sg5
g6
sa(dp4468
g2
F251.0
sg3
S'ung_49_04'
p4469
sg5
g6
sa(dp4470
g2
F164.0
sg3
S'ung_49_05'
p4471
sg5
g6
sa(dp4472
g2
F481.0
sg3
S'ung_49_06'
p4473
sg5
g6
sa(dp4474
g2
F471.0
sg3
S'ung_49_07'
p4475
sg5
g6
sa(dp4476
g2
F575.0
sg3
S'ung_49_08'
p4477
sg5
g6
sa(dp4478
g2
F1917.0
sg3
S'ung_49_09'
p4479
sg5
g6
sa(dp4480
g2
F1424.0
sg3
S'ung_49_10'
p4481
sg5
g6
sa(dp4482
g2
F1197.0
sg3
S'ung_49_11'
p4483
sg5
g6
sa(dp4484
g2
F1131.0
sg3
S'ung_49_12'
p4485
sg5
g6
sa(dp4486
g2
F523.0
sg3
S'ung_49_13'
p4487
sg5
g6
sa(dp4488
g2
F619.0
sg3
S'ung_49_14'
p4489
sg5
g6
sa(dp4490
g2
F947.0
sg3
S'ung_49_15'
p4491
sg5
g6
sa(dp4492
g2
F1136.0
sg3
S'ung_49_16'
p4493
sg5
g6
sa(dp4494
g2
F750.0
sg3
S'ung_49_17'
p4495
sg5
g6
sa(dp4496
g2
F1102.0
sg3
S'ung_49_18'
p4497
sg5
g6
sa(dp4498
g2
F957.0
sg3
S'ung_49_19'
p4499
sg5
g6
sa(dp4500
g2
F898.0
sg3
S'ung_49_20'
p4501
sg5
g6
sa(dp4502
g2
F2422.0
sg3
S'ung_49_21'
p4503
sg5
g6
sa(dp4504
g2
F1288.0
sg3
S'ung_49_22'
p4505
sg5
g6
sa(dp4506
g2
F1506.0
sg3
S'ung_56_01'
p4507
sg5
g6
sa(dp4508
g2
F3418.0
sg3
S'ung_56_02'
p4509
sg5
g6
sa(dp4510
g2
F6220.0
sg3
S'ung_56_03'
p4511
sg5
g6
sa(dp4512
g2
F6767.0
sg3
S'ung_56_04'
p4513
sg5
g6
sa(dp4514
g2
F7359.0
sg3
S'ung_56_05'
p4515
sg5
g6
sa(dp4516
g2
F6784.0
sg3
S'ung_56_06'
p4517
sg5
g6
sa(dp4518
g2
F9420.0
sg3
S'ung_56_07'
p4519
sg5
g6
sa(dp4520
g2
F4174.0
sg3
S'ung_56_08'
p4521
sg5
g6
sa(dp4522
g2
F2242.0
sg3
S'ung_60_01'
p4523
sg5
g53
sa(dp4524
g2
F2101.0
sg3
S'ung_60_02'
p4525
sg5
g53
sa(dp4526
g2
F1830.0
sg3
S'ung_60_03'
p4527
sg5
g53
sa(dp4528
g2
F1871.0
sg3
S'ung_60_04'
p4529
sg5
g53
sa(dp4530
g2
F1678.0
sg3
S'ung_60_05'
p4531
sg5
g53
sa(dp4532
g2
F1772.0
sg3
S'ung_60_06'
p4533
sg5
g53
sa(dp4534
g2
F2071.0
sg3
S'ung_60_07'
p4535
sg5
g53
sa(dp4536
g2
F3421.0
sg3
S'ung_60_08'
p4537
sg5
g53
sa(dp4538
g2
F2575.0
sg3
S'ung_60_09'
p4539
sg5
g53
sa(dp4540
g2
F1197.0
sg3
S'ung_60_10'
p4541
sg5
g53
sa(dp4542
g2
F2108.0
sg3
S'ung_60_11'
p4543
sg5
g53
sa(dp4544
g2
F1690.0
sg3
S'ung_60_12'
p4545
sg5
g53
sa(dp4546
g2
F2271.0
sg3
S'ung_60_13'
p4547
sg5
g53
sa(dp4548
g2
F1949.0
sg3
S'ung_60_14'
p4549
sg5
g53
sa(dp4550
g2
F2140.0
sg3
S'ung_60_15'
p4551
sg5
g53
sa(dp4552
g2
F2242.0
sg3
S'ung_61_01'
p4553
sg5
g53
sa(dp4554
g2
F2101.0
sg3
S'ung_61_02'
p4555
sg5
g53
sa(dp4556
g2
F1830.0
sg3
S'ung_61_03'
p4557
sg5
g53
sa(dp4558
g2
F1871.0
sg3
S'ung_61_04'
p4559
sg5
g53
sa(dp4560
g2
F1678.0
sg3
S'ung_61_05'
p4561
sg5
g53
sa(dp4562
g2
F1772.0
sg3
S'ung_61_06'
p4563
sg5
g53
sa(dp4564
g2
F2071.0
sg3
S'ung_61_07'
p4565
sg5
g53
sa(dp4566
g2
F3421.0
sg3
S'ung_61_08'
p4567
sg5
g53
sa(dp4568
g2
F2575.0
sg3
S'ung_61_09'
p4569
sg5
g53
sa(dp4570
g2
F1197.0
sg3
S'ung_61_10'
p4571
sg5
g53
sa(dp4572
g2
F2108.0
sg3
S'ung_61_11'
p4573
sg5
g53
sa(dp4574
g2
F1690.0
sg3
S'ung_61_12'
p4575
sg5
g53
sa(dp4576
g2
F2271.0
sg3
S'ung_61_13'
p4577
sg5
g53
sa(dp4578
g2
F1949.0
sg3
S'ung_61_14'
p4579
sg5
g53
sa(dp4580
g2
F2140.0
sg3
S'ung_61_15'
p4581
sg5
g53
sa(dp4582
g2
F715.0
sg3
S'ung_70_01'
p4583
sg5
g53
sa(dp4584
g2
F759.0
sg3
S'ung_70_02'
p4585
sg5
g53
sa(dp4586
g2
F1853.0
sg3
S'ung_70_03'
p4587
sg5
g53
sa(dp4588
g2
F1669.0
sg3
S'ung_70_04'
p4589
sg5
g53
sa(dp4590
g2
F904.0
sg3
S'ung_70_05'
p4591
sg5
g53
sa(dp4592
g2
F835.0
sg3
S'ung_70_06'
p4593
sg5
g53
sa(dp4594
g2
F854.0
sg3
S'ung_70_08'
p4595
sg5
g53
sa(dp4596
g2
F840.0
sg3
S'ung_70_09'
p4597
sg5
g53
sa(dp4598
g2
F799.0
sg3
S'ung_70_10'
p4599
sg5
g53
sa(dp4600
g2
F715.0
sg3
S'ung_73_01'
p4601
sg5
g6
sa(dp4602
g2
F759.0
sg3
S'ung_73_02'
p4603
sg5
g6
sa(dp4604
g2
F1853.0
sg3
S'ung_73_03'
p4605
sg5
g6
sa(dp4606
g2
F1669.0
sg3
S'ung_73_04'
p4607
sg5
g6
sa(dp4608
g2
F904.0
sg3
S'ung_73_05'
p4609
sg5
g6
sa(dp4610
g2
F835.0
sg3
S'ung_73_06'
p4611
sg5
g6
sa(dp4612
g2
F854.0
sg3
S'ung_73_08'
p4613
sg5
g6
sa(dp4614
g2
F840.0
sg3
S'ung_73_09'
p4615
sg5
g6
sa(dp4616
g2
F799.0
sg3
S'ung_73_10'
p4617
sg5
g6
sa(dp4618
g2
F464.0
sg3
S'ung_74_01'
p4619
sg5
g6
sa(dp4620
g2
F265.0
sg3
S'ung_74_02'
p4621
sg5
g6
sa(dp4622
g2
F396.0
sg3
S'ung_74_03'
p4623
sg5
g6
sa(dp4624
g2
F315.0
sg3
S'ung_74_04'
p4625
sg5
g6
sa(dp4626
g2
F323.0
sg3
S'ung_74_05'
p4627
sg5
g6
sa(dp4628
g2
F325.0
sg3
S'ung_74_06'
p4629
sg5
g6
sa(dp4630
g2
F311.0
sg3
S'ung_74_07'
p4631
sg5
g6
sa(dp4632
g2
F168.0
sg3
S'ung_74_08'
p4633
sg5
g6
sa(dp4634
g2
F199.0
sg3
S'ung_74_09'
p4635
sg5
g6
sa(dp4636
g2
F335.0
sg3
S'ung_74_10'
p4637
sg5
g6
sa(dp4638
g2
F346.0
sg3
S'ung_74_11'
p4639
sg5
g6
sa(dp4640
g2
F302.0
sg3
S'ung_74_12'
p4641
sg5
g6
sa(dp4642
g2
F2524.0
sg3
S'ung_74_13'
p4643
sg5
g6
sa(dp4644
g2
F447.0
sg3
S'ung_74_14'
p4645
sg5
g6
sa(dp4646
g2
F439.0
sg3
S'ung_74_15'
p4647
sg5
g6
sa(dp4648
g2
F493.0
sg3
S'ung_74_16'
p4649
sg5
g6
sa(dp4650
g2
F521.0
sg3
S'ung_74_17'
p4651
sg5
g6
sa(dp4652
g2
F492.0
sg3
S'ung_74_18'
p4653
sg5
g6
sa(dp4654
g2
F488.0
sg3
S'ung_74_19'
p4655
sg5
g6
sa(dp4656
g2
F576.0
sg3
S'ung_74_20'
p4657
sg5
g6
sa(dp4658
g2
F930.0
sg3
S'ung_76_01'
p4659
sg5
g6
sa(dp4660
g2
F1164.0
sg3
S'ung_76_02'
p4661
sg5
g6
sa(dp4662
g2
F1082.0
sg3
S'ung_76_03'
p4663
sg5
g6
sa(dp4664
g2
F417.0
sg3
S'ung_76_04'
p4665
sg5
g6
sa(dp4666
g2
F866.0
sg3
S'ung_76_05'
p4667
sg5
g6
sa(dp4668
g2
F675.0
sg3
S'ung_76_06'
p4669
sg5
g6
sa(dp4670
g2
F20.0
sg3
S'ung_76_07'
p4671
sg5
g6
sa(dp4672
g2
F1503.0
sg3
S'ung_76_08'
p4673
sg5
g6
sa(dp4674
g2
F1587.0
sg3
S'ung_76_09'
p4675
sg5
g6
sa(dp4676
g2
F1365.0
sg3
S'ung_76_10'
p4677
sg5
g6
sa(dp4678
g2
F513.0
sg3
S'ung_76_11'
p4679
sg5
g6
sa(dp4680
g2
F1090.0
sg3
S'ung_77_01'
p4681
sg5
g6
sa(dp4682
g2
F937.0
sg3
S'ung_77_02'
p4683
sg5
g6
sa(dp4684
g2
F984.0
sg3
S'ung_77_03'
p4685
sg5
g6
sa(dp4686
g2
F883.0
sg3
S'ung_77_04'
p4687
sg5
g6
sa(dp4688
g2
F511.0
sg3
S'ung_77_05'
p4689
sg5
g6
sa(dp4690
g2
F1352.0
sg3
S'ung_77_06'
p4691
sg5
g6
sa(dp4692
g2
F505.0
sg3
S'ung_77_07'
p4693
sg5
g6
sa(dp4694
g2
F1008.0
sg3
S'ung_77_08'
p4695
sg5
g6
sa(dp4696
g2
F988.0
sg3
S'ung_77_09'
p4697
sg5
g6
sa(dp4698
g2
F690.0
sg3
S'ung_77_10'
p4699
sg5
g6
sa(dp4700
g2
F320.0
sg3
S'ung_77_11'
p4701
sg5
g6
sa(dp4702
g2
F978.0
sg3
S'ung_77_12'
p4703
sg5
g6
sa(dp4704
g2
F1387.0
sg3
S'ung_77_13'
p4705
sg5
g6
sa(dp4706
g2
F990.0
sg3
S'ung_77_14'
p4707
sg5
g6
sa(dp4708
g2
F1078.0
sg3
S'ung_77_15'
p4709
sg5
g6
sa(dp4710
g2
F653.0
sg3
S'ung_77_16'
p4711
sg5
g6
sa(dp4712
g2
F719.0
sg3
S'ung_77_17'
p4713
sg5
g6
sa(dp4714
g2
F854.0
sg3
S'ung_77_18'
p4715
sg5
g6
sa(dp4716
g2
F1000.0
sg3
S'ung_77_19'
p4717
sg5
g6
sa(dp4718
g2
F1570.0
sg3
S'ung_77_20'
p4719
sg5
g6
sa(dp4720
g2
F1310.0
sg3
S'ung_77_21'
p4721
sg5
g6
sa(dp4722
g2
F1425.0
sg3
S'ung_77_22'
p4723
sg5
g6
sa(dp4724
g2
F1592.0
sg3
S'ung_77_23'
p4725
sg5
g6
sa(dp4726
g2
F716.0
sg3
S'ung_77_24'
p4727
sg5
g6
sa(dp4728
g2
F663.0
sg3
S'ung_77_25'
p4729
sg5
g6
sa(dp4730
g2
F651.0
sg3
S'ung_77_26'
p4731
sg5
g6
sa(dp4732
g2
F727.0
sg3
S'ung_77_27'
p4733
sg5
g6
sa(dp4734
g2
F2970.0
sg3
S'ung_77_28'
p4735
sg5
g6
sa(dp4736
g2
F2104.0
sg3
S'ung_77_29'
p4737
sg5
g6
sa(dp4738
g2
F1261.0
sg3
S'ung_77_30'
p4739
sg5
g6
sa(dp4740
g2
F2106.0
sg3
S'ung_77_31'
p4741
sg5
g6
sa(dp4742
g2
F1894.0
sg3
S'ung_77_32'
p4743
sg5
g6
sa(dp4744
g2
F2997.0
sg3
S'ung_77_33'
p4745
sg5
g6
sa(dp4746
g2
F1122.0
sg3
S'ung_77_34'
p4747
sg5
g6
sa(dp4748
g2
F169.0
sg3
S'ung_78_01'
p4749
sg5
g6
sa(dp4750
g2
F277.0
sg3
S'ung_78_02'
p4751
sg5
g6
sa(dp4752
g2
F174.0
sg3
S'ung_78_03'
p4753
sg5
g6
sa(dp4754
g2
F152.0
sg3
S'ung_78_04'
p4755
sg5
g6
sa(dp4756
g2
F167.0
sg3
S'ung_78_05'
p4757
sg5
g6
sa(dp4758
g2
F109.0
sg3
S'ung_78_06'
p4759
sg5
g6
sa(dp4760
g2
F141.0
sg3
S'ung_78_07'
p4761
sg5
g6
sa(dp4762
g2
F112.0
sg3
S'ung_78_08'
p4763
sg5
g6
sa(dp4764
g2
F151.0
sg3
S'ung_78_09'
p4765
sg5
g6
sa(dp4766
g2
F140.0
sg3
S'ung_78_10'
p4767
sg5
g6
sa(dp4768
g2
F46.0
sg3
S'ung_78_11'
p4769
sg5
g6
sa(dp4770
g2
F97.0
sg3
S'ung_78_12'
p4771
sg5
g6
sa(dp4772
g2
F174.0
sg3
S'ung_78_13'
p4773
sg5
g6
sa(dp4774
g2
F171.0
sg3
S'ung_78_14'
p4775
sg5
g6
sa(dp4776
g2
F152.0
sg3
S'ung_78_15'
p4777
sg5
g6
sa(dp4778
g2
F196.0
sg3
S'ung_78_16'
p4779
sg5
g6
sa(dp4780
g2
F179.0
sg3
S'ung_78_17'
p4781
sg5
g6
sa(dp4782
g2
F213.0
sg3
S'ung_78_18'
p4783
sg5
g6
sa(dp4784
g2
F176.0
sg3
S'ung_78_19'
p4785
sg5
g6
sa(dp4786
g2
F230.0
sg3
S'ung_78_20'
p4787
sg5
g6
sa(dp4788
g2
F226.0
sg3
S'ung_78_21'
p4789
sg5
g6
sa(dp4790
g2
F606.0
sg3
S'ung_78_22'
p4791
sg5
g6
sa(dp4792
g2
F519.0
sg3
S'ung_78_23'
p4793
sg5
g6
sa(dp4794
g2
F246.0
sg3
S'ung_78_24'
p4795
sg5
g6
sa(dp4796
g2
F356.0
sg3
S'ung_78_25'
p4797
sg5
g6
sa(dp4798
g2
F326.0
sg3
S'ung_78_26'
p4799
sg5
g6
sa(dp4800
g2
F296.0
sg3
S'ung_78_27'
p4801
sg5
g6
sa(dp4802
g2
F448.0
sg3
S'ung_78_28'
p4803
sg5
g6
sa(dp4804
g2
F171.0
sg3
S'ung_78_29'
p4805
sg5
g6
sa(dp4806
g2
F703.0
sg3
S'ung_78_30'
p4807
sg5
g6
sa(dp4808
g2
F798.0
sg3
S'ung_78_31'
p4809
sg5
g6
sa(dp4810
g2
F214.0
sg3
S'ung_78_32'
p4811
sg5
g6
sa(dp4812
g2
F229.0
sg3
S'ung_78_33'
p4813
sg5
g6
sa(dp4814
g2
F305.0
sg3
S'ung_78_34'
p4815
sg5
g6
sa(dp4816
g2
F220.0
sg3
S'ung_78_35'
p4817
sg5
g6
sa(dp4818
g2
F10.0
sg3
S'ung_82_01'
p4819
sg5
g6
sa(dp4820
g2
F1808.0
sg3
S'ung_82_02'
p4821
sg5
g6
sa(dp4822
g2
F1899.0
sg3
S'ung_82_03'
p4823
sg5
g6
sa(dp4824
g2
F908.0
sg3
S'ung_82_04'
p4825
sg5
g6
sa(dp4826
g2
F2247.0
sg3
S'ung_82_05'
p4827
sg5
g6
sa(dp4828
g2
F1091.0
sg3
S'ung_82_06'
p4829
sg5
g6
sa(dp4830
g2
F1198.0
sg3
S'ung_82_07'
p4831
sg5
g6
sa(dp4832
g2
F1699.0
sg3
S'ung_82_08'
p4833
sg5
g6
sa(dp4834
g2
F1292.0
sg3
S'ung_82_09'
p4835
sg5
g6
sa(dp4836
g2
F564.0
sg3
S'ung_82_10'
p4837
sg5
g6
sa(dp4838
g2
F695.0
sg3
S'ung_82_11'
p4839
sg5
g6
sa(dp4840
g2
F402.0
sg3
S'ung_82_12'
p4841
sg5
g6
sa(dp4842
g2
F413.0
sg3
S'ung_82_13'
p4843
sg5
g6
sa(dp4844
g2
F907.0
sg3
S'ung_82_14'
p4845
sg5
g6
sa(dp4846
g2
F716.0
sg3
S'ung_82_15'
p4847
sg5
g6
sa(dp4848
g2
F1333.0
sg3
S'ung_82_16'
p4849
sg5
g6
sa(dp4850
g2
F1580.0
sg3
S'ung_82_17'
p4851
sg5
g6
sa(dp4852
g2
F10.0
sg3
S'ung_82_18'
p4853
sg5
g6
sa(dp4854
g2
F633.0
sg3
S'ung_83_01'
p4855
sg5
g6
sa(dp4856
g2
F364.0
sg3
S'ung_83_02'
p4857
sg5
g6
sa(dp4858
g2
F669.0
sg3
S'ung_83_03'
p4859
sg5
g6
sa(dp4860
g2
F467.0
sg3
S'ung_83_04'
p4861
sg5
g6
sa(dp4862
g2
F486.0
sg3
S'ung_83_05'
p4863
sg5
g6
sa(dp4864
g2
F401.0
sg3
S'ung_83_06'
p4865
sg5
g6
sa(dp4866
g2
F422.0
sg3
S'ung_83_07'
p4867
sg5
g6
sa(dp4868
g2
F462.0
sg3
S'ung_83_08'
p4869
sg5
g6
sa(dp4870
g2
F451.0
sg3
S'ung_83_09'
p4871
sg5
g6
sa(dp4872
g2
F479.0
sg3
S'ung_83_10'
p4873
sg5
g6
sa(dp4874
g2
F99.0
sg3
S'ung_83_11'
p4875
sg5
g6
sa(dp4876
g2
F508.0
sg3
S'ung_83_12'
p4877
sg5
g6
sa(dp4878
g2
F507.0
sg3
S'ung_83_13'
p4879
sg5
g6
sa(dp4880
g2
F429.0
sg3
S'ung_83_14'
p4881
sg5
g6
sa(dp4882
g2
F522.0
sg3
S'ung_83_15'
p4883
sg5
g6
sa(dp4884
g2
F510.0
sg3
S'ung_83_16'
p4885
sg5
g6
sa(dp4886
g2
F524.0
sg3
S'ung_83_17'
p4887
sg5
g6
sa(dp4888
g2
F466.0
sg3
S'ung_83_18'
p4889
sg5
g6
sa(dp4890
g2
F509.0
sg3
S'ung_83_19'
p4891
sg5
g6
sa(dp4892
g2
F524.0
sg3
S'ung_83_20'
p4893
sg5
g6
sa(dp4894
g2
F519.0
sg3
S'ung_83_21'
p4895
sg5
g6
sa(dp4896
g2
F5371.0
sg3
S'ung_83_22'
p4897
sg5
g6
sa(dp4898
g2
F542.0
sg3
S'ung_83_23'
p4899
sg5
g6
sa(dp4900
g2
F532.0
sg3
S'ung_83_24'
p4901
sg5
g6
sa(dp4902
g2
F541.0
sg3
S'ung_83_25'
p4903
sg5
g6
sa(dp4904
g2
F522.0
sg3
S'ung_83_26'
p4905
sg5
g6
sa(dp4906
g2
F983.0
sg3
S'ung_83_27'
p4907
sg5
g6
sa(dp4908
g2
F931.0
sg3
S'ung_83_28'
p4909
sg5
g6
sa(dp4910
g2
F947.0
sg3
S'ung_83_29'
p4911
sg5
g6
sa(dp4912
g2
F1009.0
sg3
S'ung_83_30'
p4913
sg5
g6
sa(dp4914
g2
F935.0
sg3
S'ung_83_31'
p4915
sg5
g6
sa(dp4916
g2
F1041.0
sg3
S'ung_83_32'
p4917
sg5
g6
sa(dp4918
g2
F1291.0
sg3
S'ung_83_33'
p4919
sg5
g6
sa(dp4920
g2
F967.0
sg3
S'ung_83_34'
p4921
sg5
g6
sa(dp4922
g2
F1048.0
sg3
S'ung_83_35'
p4923
sg5
g6
sa(dp4924
g2
F1062.0
sg3
S'ung_83_36'
p4925
sg5
g6
sa(dp4926
g2
F958.0
sg3
S'ung_83_37'
p4927
sg5
g6
sa(dp4928
g2
F1006.0
sg3
S'ung_83_38'
p4929
sg5
g6
sa(dp4930
g2
F971.0
sg3
S'ung_83_39'
p4931
sg5
g6
sa(dp4932
g2
F530.0
sg3
S'ung_83_40'
p4933
sg5
g6
sa(dp4934
g2
F470.0
sg3
S'ung_83_41'
p4935
sg5
g6
sa(dp4936
g2
F540.0
sg3
S'ung_83_42'
p4937
sg5
g6
sa(dp4938
g2
F597.0
sg3
S'ung_83_43'
p4939
sg5
g6
sa(dp4940
g2
F661.0
sg3
S'ung_83_44'
p4941
sg5
g6
sa(dp4942
g2
F495.0
sg3
S'ung_83_45'
p4943
sg5
g6
sa(dp4944
g2
F501.0
sg3
S'ung_83_46'
p4945
sg5
g6
sa(dp4946
g2
F622.0
sg3
S'ung_83_47'
p4947
sg5
g6
sa(dp4948
g2
F445.0
sg3
S'ung_83_48'
p4949
sg5
g6
sa(dp4950
g2
F456.0
sg3
S'ung_83_49'
p4951
sg5
g6
sa(dp4952
g2
F528.0
sg3
S'ung_83_50'
p4953
sg5
g6
sa(dp4954
g2
F591.0
sg3
S'ung_83_51'
p4955
sg5
g6
sa(dp4956
g2
F508.0
sg3
S'ung_83_52'
p4957
sg5
g6
sa(dp4958
g2
F539.0
sg3
S'ung_83_53'
p4959
sg5
g6
sa(dp4960
g2
F420.0
sg3
S'ung_83_54'
p4961
sg5
g6
sa(dp4962
g2
F736.0
sg3
S'ung_83_55'
p4963
sg5
g6
sa(dp4964
g2
F501.0
sg3
S'ung_83_56'
p4965
sg5
g6
sa(dp4966
g2
F409.0
sg3
S'ung_83_57'
p4967
sg5
g6
sa(dp4968
g2
F364.0
sg3
S'ung_83_58'
p4969
sg5
g6
sa(dp4970
g2
F602.0
sg3
S'ung_83_59'
p4971
sg5
g6
sa(dp4972
g2
F406.0
sg3
S'ung_83_60'
p4973
sg5
g6
sa(dp4974
g2
F503.0
sg3
S'ung_83_61'
p4975
sg5
g6
sa(dp4976
g2
F474.0
sg3
S'ung_83_62'
p4977
sg5
g6
sa(dp4978
g2
F685.0
sg3
S'ung_83_63'
p4979
sg5
g6
sa(dp4980
g2
F578.0
sg3
S'ung_83_64'
p4981
sg5
g6
sa(dp4982
g2
F401.0
sg3
S'ung_83_65'
p4983
sg5
g6
sa(dp4984
g2
F672.0
sg3
S'ung_83_66'
p4985
sg5
g6
sa(dp4986
g2
F675.0
sg3
S'ung_83_67'
p4987
sg5
g6
sa(dp4988
g2
F660.0
sg3
S'ung_83_68'
p4989
sg5
g6
sa(dp4990
g2
F464.0
sg3
S'ung_84_01'
p4991
sg5
g6
sa(dp4992
g2
F265.0
sg3
S'ung_84_02'
p4993
sg5
g6
sa(dp4994
g2
F396.0
sg3
S'ung_84_03'
p4995
sg5
g6
sa(dp4996
g2
F315.0
sg3
S'ung_84_04'
p4997
sg5
g6
sa(dp4998
g2
F323.0
sg3
S'ung_84_05'
p4999
sg5
g6
sa(dp5000
g2
F325.0
sg3
S'ung_84_06'
p5001
sg5
g6
sa(dp5002
g2
F311.0
sg3
S'ung_84_07'
p5003
sg5
g6
sa(dp5004
g2
F168.0
sg3
S'ung_84_08'
p5005
sg5
g6
sa(dp5006
g2
F199.0
sg3
S'ung_84_09'
p5007
sg5
g6
sa(dp5008
g2
F335.0
sg3
S'ung_84_10'
p5009
sg5
g6
sa(dp5010
g2
F346.0
sg3
S'ung_84_11'
p5011
sg5
g6
sa(dp5012
g2
F302.0
sg3
S'ung_84_12'
p5013
sg5
g6
sa(dp5014
g2
F2524.0
sg3
S'ung_84_13'
p5015
sg5
g6
sa(dp5016
g2
F447.0
sg3
S'ung_84_14'
p5017
sg5
g6
sa(dp5018
g2
F439.0
sg3
S'ung_84_15'
p5019
sg5
g6
sa(dp5020
g2
F493.0
sg3
S'ung_84_16'
p5021
sg5
g6
sa(dp5022
g2
F521.0
sg3
S'ung_84_17'
p5023
sg5
g6
sa(dp5024
g2
F492.0
sg3
S'ung_84_18'
p5025
sg5
g6
sa(dp5026
g2
F488.0
sg3
S'ung_84_19'
p5027
sg5
g6
sa(dp5028
g2
F576.0
sg3
S'ung_84_20'
p5029
sg5
g6
sa(dp5030
g2
F998.0
sg3
S'ung_85_01'
p5031
sg5
g6
sa(dp5032
g2
F810.0
sg3
S'ung_85_02'
p5033
sg5
g6
sa(dp5034
g2
F3245.0
sg3
S'ung_85_03'
p5035
sg5
g6
sa(dp5036
g2
F2555.0
sg3
S'ung_85_04'
p5037
sg5
g6
sa(dp5038
g2
F1634.0
sg3
S'ung_85_05'
p5039
sg5
g6
sa(dp5040
g2
F950.0
sg3
S'ung_85_06'
p5041
sg5
g6
sa(dp5042
g2
F959.0
sg3
S'ung_85_07'
p5043
sg5
g6
sa(dp5044
g2
F1016.0
sg3
S'ung_85_08'
p5045
sg5
g6
sa(dp5046
g2
F253.0
sg3
S'ung_85_09'
p5047
sg5
g6
sa(dp5048
g2
F774.0
sg3
S'ung_85_10'
p5049
sg5
g6
sa(dp5050
g2
F1802.0
sg3
S'ung_85_11'
p5051
sg5
g6
sa(dp5052
g2
F4499.0
sg3
S'ung_85_12'
p5053
sg5
g6
sa(dp5054
g2
F1446.0
sg3
S'ung_85_13'
p5055
sg5
g6
sa(dp5056
g2
F2969.0
sg3
S'ung_85_14'
p5057
sg5
g6
sa(dp5058
g2
F1325.0
sg3
S'ung_85_15'
p5059
sg5
g6
sa(dp5060
g2
F4579.0
sg3
S'ung_86_01'
p5061
sg5
g6
sa(dp5062
g2
F10617.0
sg3
S'ung_86_02'
p5063
sg5
g6
sa(dp5064
g2
F8401.0
sg3
S'ung_86_03'
p5065
sg5
g6
sa(dp5066
g2
F10078.0
sg3
S'ung_86_04'
p5067
sg5
g6
sa(dp5068
g2
F8340.0
sg3
S'ung_86_05'
p5069
sg5
g6
sa(dp5070
g2
F9939.0
sg3
S'ung_86_06'
p5071
sg5
g6
sa(dp5072
g2
F8702.0
sg3
S'ung_86_07'
p5073
sg5
g6
sa(dp5074
g2
F9206.0
sg3
S'ung_86_08'
p5075
sg5
g6
sa(dp5076
g2
F4794.0
sg3
S'ung_86_09'
p5077
sg5
g6
sa(dp5078
g2
F7583.0
sg3
S'ung_86_10'
p5079
sg5
g6
sa(dp5080
g2
F5674.0
sg3
S'ung_86_11'
p5081
sg5
g6
sa(dp5082
g2
F8856.0
sg3
S'ung_86_12'
p5083
sg5
g6
sa(dp5084
g2
F6221.0
sg3
S'ung_86_13'
p5085
sg5
g6
sa(dp5086
g2
F6539.0
sg3
S'ung_86_14'
p5087
sg5
g6
sa(dp5088
g2
F7092.0
sg3
S'ung_86_15'
p5089
sg5
g6
sa(dp5090
g2
F616.0
sg3
S'ung_87_01'
p5091
sg5
g6
sa(dp5092
g2
F247.0
sg3
S'ung_87_03'
p5093
sg5
g6
sa(dp5094
g2
F216.0
sg3
S'ung_87_04'
p5095
sg5
g6
sa(dp5096
g2
F789.0
sg3
S'ung_90_01'
p5097
sg5
g6
sa(dp5098
g2
F781.0
sg3
S'ung_90_02'
p5099
sg5
g6
sa(dp5100
g2
F884.0
sg3
S'ung_90_03'
p5101
sg5
g6
sa(dp5102
g2
F698.0
sg3
S'ung_90_04'
p5103
sg5
g6
sa(dp5104
g2
F513.0
sg3
S'ung_90_05'
p5105
sg5
g6
sa(dp5106
g2
F624.0
sg3
S'ung_90_06'
p5107
sg5
g6
sa(dp5108
g2
F895.0
sg3
S'ung_90_07'
p5109
sg5
g6
sa(dp5110
g2
F337.0
sg3
S'ung_90_08'
p5111
sg5
g6
sa(dp5112
g2
F305.0
sg3
S'ung_90_09'
p5113
sg5
g6
sa(dp5114
g2
F2.0
sg3
S'ung_90_10'
p5115
sg5
g6
sa(dp5116
g2
F180.0
sg3
S'ung_90_11'
p5117
sg5
g6
sa(dp5118
g2
F826.0
sg3
S'ung_90_12'
p5119
sg5
g6
sa(dp5120
g2
F929.0
sg3
S'ung_90_13'
p5121
sg5
g6
sa(dp5122
g2
F838.0
sg3
S'ung_90_14'
p5123
sg5
g6
sa(dp5124
g2
F1189.0
sg3
S'ung_90_15'
p5125
sg5
g6
sa(dp5126
g2
F724.0
sg3
S'ung_90_16'
p5127
sg5
g6
sa(dp5128
g2
F605.0
sg3
S'ung_90_17'
p5129
sg5
g6
sa(dp5130
g2
F394.0
sg3
S'ung_90_18'
p5131
sg5
g6
sa(dp5132
g2
F1040.0
sg3
S'ung_90_19'
p5133
sg5
g6
sa(dp5134
g2
F1779.0
sg3
S'ung_90_20'
p5135
sg5
g6
sa(dp5136
g2
F1355.0
sg3
S'ung_90_21'
p5137
sg5
g6
sa(dp5138
g2
F692.0
sg3
S'ung_90_22'
p5139
sg5
g6
sa(dp5140
g2
F1187.0
sg3
S'ung_90_23'
p5141
sg5
g6
sa(dp5142
g2
F786.0
sg3
S'ung_90_24'
p5143
sg5
g6
sa(dp5144
g2
F1266.0
sg3
S'ung_90_25'
p5145
sg5
g6
sa(dp5146
g2
F1430.0
sg3
S'ung_90_26'
p5147
sg5
g6
sa(dp5148
g2
F1225.0
sg3
S'ung_90_27'
p5149
sg5
g6
sa(dp5150
g2
F770.0
sg3
S'ung_90_28'
p5151
sg5
g6
sa(dp5152
g2
F1482.0
sg3
S'ung_90_29'
p5153
sg5
g6
sa(dp5154
g2
F1433.0
sg3
S'ung_90_30'
p5155
sg5
g6
sa(dp5156
g2
F979.0
sg3
S'ung_90_31'
p5157
sg5
g6
sa(dp5158
g2
F723.0
sg3
S'ung_90_32'
p5159
sg5
g6
sa(dp5160
g2
F896.0
sg3
S'ung_90_33'
p5161
sg5
g6
sa(dp5162
g2
F840.0
sg3
S'ung_90_34'
p5163
sg5
g6
sa(dp5164
g2
F695.0
sg3
S'ung_90_35'
p5165
sg5
g6
sa(dp5166
g2
F657.0
sg3
S'ung_90_36'
p5167
sg5
g6
sa(dp5168
g2
F2737.0
sg3
S'ung_91_01'
p5169
sg5
g6
sa(dp5170
g2
F1748.0
sg3
S'ung_91_02'
p5171
sg5
g6
sa(dp5172
g2
F1865.0
sg3
S'ung_91_03'
p5173
sg5
g6
sa(dp5174
g2
F2162.0
sg3
S'ung_91_04'
p5175
sg5
g6
sa(dp5176
g2
F2700.0
sg3
S'ung_91_05'
p5177
sg5
g6
sa(dp5178
g2
F136.0
sg3
S'ung_91_06'
p5179
sg5
g6
sa(dp5180
g2
F2582.0
sg3
S'ung_91_07'
p5181
sg5
g6
sa(dp5182
g2
F3972.0
sg3
S'ung_91_08'
p5183
sg5
g6
sa(dp5184
g2
F5402.0
sg3
S'ung_91_09'
p5185
sg5
g6
sa(dp5186
g2
F3175.0
sg3
S'ung_91_10'
p5187
sg5
g6
sa(dp5188
g2
F1863.0
sg3
S'ung_91_11'
p5189
sg5
g6
sa(dp5190
g2
F2222.0
sg3
S'ung_91_12'
p5191
sg5
g6
sa(dp5192
g2
F2960.0
sg3
S'ung_91_13'
p5193
sg5
g6
sa(dp5194
g2
F2769.0
sg3
S'ung_91_14'
p5195
sg5
g6
sa(dp5196
g2
F3090.0
sg3
S'ung_91_15'
p5197
sg5
g6
sa(dp5198
g2
F1892.0
sg3
S'ung_91_16'
p5199
sg5
g6
sa(dp5200
g2
F1520.0
sg3
S'ung_91_17'
p5201
sg5
g6
sa(dp5202
g2
F3363.0
sg3
S'ung_91_18'
p5203
sg5
g6
sa(dp5204
g2
F1885.0
sg3
S'ung_91_19'
p5205
sg5
g6
sa(dp5206
g2
F2774.0
sg3
S'ung_91_20'
p5207
sg5
g6
sa(dp5208
g2
F3870.0
sg3
S'ung_91_21'
p5209
sg5
g6
sa(dp5210
g2
F2106.0
sg3
S'ung_91_22'
p5211
sg5
g6
sa(dp5212
g2
F2668.0
sg3
S'ung_91_23'
p5213
sg5
g6
sa(dp5214
g2
F3804.0
sg3
S'ung_91_24'
p5215
sg5
g6
sa(dp5216
g2
F3137.0
sg3
S'ung_91_25'
p5217
sg5
g6
sa(dp5218
g2
F2082.0
sg3
S'ung_91_26'
p5219
sg5
g6
sa(dp5220
g2
F2894.0
sg3
S'ung_91_27'
p5221
sg5
g6
sa(dp5222
g2
F3307.0
sg3
S'ung_91_28'
p5223
sg5
g6
sa(dp5224
g2
F2181.0
sg3
S'ung_91_29'
p5225
sg5
g6
sa(dp5226
g2
F3139.0
sg3
S'ung_91_30'
p5227
sg5
g6
sa(dp5228
g2
F1992.0
sg3
S'ung_91_31'
p5229
sg5
g6
sa(dp5230
g2
F3724.0
sg3
S'ung_91_32'
p5231
sg5
g6
sa(dp5232
g2
F2698.0
sg3
S'ung_91_33'
p5233
sg5
g6
sa(dp5234
g2
F2208.0
sg3
S'ung_91_34'
p5235
sg5
g6
sa(dp5236
g2
F3052.0
sg3
S'ung_91_35'
p5237
sg5
g6
sa(dp5238
g2
F887.0
sg3
S'ung_91_36'
p5239
sg5
g6
sa(dp5240
g2
F315.0
sg3
S'ung_91_37'
p5241
sg5
g6
sa(dp5242
g2
F458.0
sg3
S'ung_91_38'
p5243
sg5
g6
sa(dp5244
g2
F446.0
sg3
S'ung_91_39'
p5245
sg5
g6
sa(dp5246
g2
F469.0
sg3
S'ung_91_40'
p5247
sg5
g6
sa(dp5248
g2
F503.0
sg3
S'ung_91_41'
p5249
sg5
g6
sa(dp5250
g2
F560.0
sg3
S'ung_91_42'
p5251
sg5
g6
sa(dp5252
g2
F227.0
sg3
S'ung_91_43'
p5253
sg5
g6
sa(dp5254
g2
F338.0
sg3
S'ung_91_44'
p5255
sg5
g6
sa(dp5256
g2
F371.0
sg3
S'ung_91_45'
p5257
sg5
g6
sa(dp5258
g2
F322.0
sg3
S'ung_91_46'
p5259
sg5
g6
sa(dp5260
g2
F469.0
sg3
S'ung_91_47'
p5261
sg5
g6
sa(dp5262
g2
F440.0
sg3
S'ung_91_48'
p5263
sg5
g6
sa(dp5264
g2
F482.0
sg3
S'ung_91_49'
p5265
sg5
g6
sa(dp5266
g2
F663.0
sg3
S'ung_91_50'
p5267
sg5
g6
sa(dp5268
g2
F484.0
sg3
S'ung_91_51'
p5269
sg5
g6
sa(dp5270
g2
F509.0
sg3
S'ung_91_52'
p5271
sg5
g6
sa(dp5272
g2
F555.0
sg3
S'ung_91_53'
p5273
sg5
g6
sa(dp5274
g2
F678.0
sg3
S'ung_91_54'
p5275
sg5
g6
sa(dp5276
g2
F467.0
sg3
S'ung_91_55'
p5277
sg5
g6
sa(dp5278
g2
F500.0
sg3
S'ung_91_56'
p5279
sg5
g6
sa(dp5280
g2
F1177.0
sg3
S'ung_91_57'
p5281
sg5
g6
sa(dp5282
g2
F493.0
sg3
S'ung_91_58'
p5283
sg5
g6
sa(dp5284
g2
F312.0
sg3
S'ung_91_59'
p5285
sg5
g6
sa(dp5286
g2
F367.0
sg3
S'ung_91_60'
p5287
sg5
g6
sa(dp5288
g2
F362.0
sg3
S'ung_91_61'
p5289
sg5
g6
sa(dp5290
g2
F1849.0
sg3
S'ung_91_62'
p5291
sg5
g6
sa(dp5292
g2
F21.0
sg3
S'ung_93_01'
p5293
sg5
g6
sa(dp5294
g2
F1492.0
sg3
S'ung_93_02'
p5295
sg5
g6
sa(dp5296
g2
F442.0
sg3
S'ung_93_03'
p5297
sg5
g6
sa(dp5298
g2
F506.0
sg3
S'ung_93_04'
p5299
sg5
g6
sa(dp5300
g2
F546.0
sg3
S'ung_93_05'
p5301
sg5
g6
sa(dp5302
g2
F402.0
sg3
S'ung_93_06'
p5303
sg5
g6
sa(dp5304
g2
F236.0
sg3
S'ung_93_07'
p5305
sg5
g6
sa(dp5306
g2
F557.0
sg3
S'ung_93_08'
p5307
sg5
g6
sa(dp5308
g2
F3602.0
sg3
S'ung_94_01'
p5309
sg5
g6
sa(dp5310
g2
F3341.0
sg3
S'ung_94_02'
p5311
sg5
g6
sa(dp5312
g2
F3732.0
sg3
S'ung_94_03'
p5313
sg5
g6
sa(dp5314
g2
F3143.0
sg3
S'ung_94_04'
p5315
sg5
g6
sa(dp5316
g2
F5272.0
sg3
S'ung_94_05'
p5317
sg5
g6
sa(dp5318
g2
F2514.0
sg3
S'ung_94_06'
p5319
sg5
g6
sa(dp5320
g2
F2313.0
sg3
S'ung_94_07'
p5321
sg5
g6
sa(dp5322
g2
F2749.0
sg3
S'ung_94_08'
p5323
sg5
g6
sa(dp5324
g2
F3974.0
sg3
S'ung_94_09'
p5325
sg5
g6
sa(dp5326
g2
F3457.0
sg3
S'ung_94_10'
p5327
sg5
g6
sa(dp5328
g2
F4809.0
sg3
S'ung_94_11'
p5329
sg5
g6
sa(dp5330
g2
F4500.0
sg3
S'ung_94_12'
p5331
sg5
g6
sa(dp5332
g2
F1995.0
sg3
S'ung_94_13'
p5333
sg5
g6
sa(dp5334
g2
F2995.0
sg3
S'ung_94_14'
p5335
sg5
g6
sa(dp5336
g2
F2211.0
sg3
S'ung_94_15'
p5337
sg5
g6
sa(dp5338
g2
F2031.0
sg3
S'ung_94_16'
p5339
sg5
g6
sa.