(lp0
(dp1
S'nb_frames'
p2
F343.0
sS'name'
p3
S'02_01'
p4
sa(dp5
g2
F298.0
sg3
S'02_02'
p6
sa(dp7
g2
F173.0
sg3
S'02_03'
p8
sa(dp9
g2
F483.0
sg3
S'02_04'
p10
sa(dp11
g2
F1854.0
sg3
S'02_05'
p12
sa(dp13
g2
F2235.0
sg3
S'02_06'
p14
sa(dp15
g2
F2251.0
sg3
S'02_07'
p16
sa(dp17
g2
F1500.0
sg3
S'02_08'
p18
sa(dp19
g2
F1033.0
sg3
S'02_09'
p20
sa(dp21
g2
F2645.0
sg3
S'02_10'
p22
sa(dp23
g2
F598.0
sg3
S'05_01'
p24
sa(dp25
g2
F1123.0
sg3
S'05_02'
p26
sa(dp27
g2
F434.0
sg3
S'05_03'
p28
sa(dp29
g2
F1199.0
sg3
S'05_04'
p30
sa(dp31
g2
F915.0
sg3
S'05_05'
p32
sa(dp33
g2
F885.0
sg3
S'05_06'
p34
sa(dp35
g2
F1191.0
sg3
S'05_07'
p36
sa(dp37
g2
F721.0
sg3
S'05_08'
p38
sa(dp39
g2
F817.0
sg3
S'05_10'
p40
sa(dp41
g2
F591.0
sg3
S'05_11'
p42
sa(dp43
g2
F1354.0
sg3
S'05_12'
p44
sa(dp45
g2
F1095.0
sg3
S'05_13'
p46
sa(dp47
g2
F642.0
sg3
S'05_14'
p48
sa(dp49
g2
F540.0
sg3
S'05_15'
p50
sa(dp51
g2
F525.0
sg3
S'05_16'
p52
sa(dp53
g2
F1043.0
sg3
S'05_17'
p54
sa(dp55
g2
F1829.0
sg3
S'05_18'
p56
sa(dp57
g2
F860.0
sg3
S'05_19'
p58
sa(dp59
g2
F1095.0
sg3
S'05_20'
p60
sa(dp61
g2
F494.0
sg3
S'06_01'
p62
sa(dp63
g2
F527.0
sg3
S'06_03'
p64
sa(dp65
g2
F396.0
sg3
S'06_04'
p66
sa(dp67
g2
F385.0
sg3
S'06_05'
p68
sa(dp69
g2
F402.0
sg3
S'06_06'
p70
sa(dp71
g2
F576.0
sg3
S'06_07'
p72
sa(dp73
g2
F342.0
sg3
S'06_08'
p74
sa(dp75
g2
F301.0
sg3
S'06_09'
p76
sa(dp77
g2
F1113.0
sg3
S'06_10'
p78
sa(dp79
g2
F1146.0
sg3
S'06_11'
p80
sa(dp81
g2
F1222.0
sg3
S'06_12'
p82
sa(dp83
g2
F479.0
sg3
S'06_14'
p84
sa(dp85
g2
F545.0
sg3
S'06_15'
p86
sa(dp87
g2
F277.0
sg3
S'08_01'
p88
sa(dp89
g2
F309.0
sg3
S'08_02'
p90
sa(dp91
g2
F353.0
sg3
S'08_03'
p92
sa(dp93
g2
F484.0
sg3
S'08_04'
p94
sa(dp95
g2
F298.0
sg3
S'08_05'
p96
sa(dp97
g2
F296.0
sg3
S'08_06'
p98
sa(dp99
g2
F283.0
sg3
S'08_08'
p100
sa(dp101
g2
F293.0
sg3
S'08_09'
p102
sa(dp103
g2
F275.0
sg3
S'08_10'
p104
sa(dp105
g2
F375.0
sg3
S'08_11'
p106
sa(dp107
g2
F885.0
sg3
S'104_02'
p108
sa(dp109
g2
F1619.0
sg3
S'104_03'
p110
sa(dp111
g2
F198.0
sg3
S'104_04'
p112
sa(dp113
g2
F337.0
sg3
S'104_06'
p114
sa(dp115
g2
F2304.0
sg3
S'104_07'
p116
sa(dp117
g2
F314.0
sg3
S'104_08'
p118
sa(dp119
g2
F349.0
sg3
S'104_09'
p120
sa(dp121
g2
F334.0
sg3
S'104_10'
p122
sa(dp123
g2
F539.0
sg3
S'104_11'
p124
sa(dp125
g2
F421.0
sg3
S'104_12'
p126
sa(dp127
g2
F550.0
sg3
S'104_13'
p128
sa(dp129
g2
F709.0
sg3
S'104_14'
p130
sa(dp131
g2
F208.0
sg3
S'104_15'
p132
sa(dp133
g2
F327.0
sg3
S'104_16'
p134
sa(dp135
g2
F465.0
sg3
S'104_17'
p136
sa(dp137
g2
F921.0
sg3
S'104_19'
p138
sa(dp139
g2
F701.0
sg3
S'104_20'
p140
sa(dp141
g2
F789.0
sg3
S'104_21'
p142
sa(dp143
g2
F1838.0
sg3
S'104_22'
p144
sa(dp145
g2
F1834.0
sg3
S'104_23'
p146
sa(dp147
g2
F1896.0
sg3
S'104_24'
p148
sa(dp149
g2
F2451.0
sg3
S'104_25'
p150
sa(dp151
g2
F1100.0
sg3
S'104_26'
p152
sa(dp153
g2
F2434.0
sg3
S'104_27'
p154
sa(dp155
g2
F480.0
sg3
S'104_29'
p156
sa(dp157
g2
F1365.0
sg3
S'104_30'
p158
sa(dp159
g2
F1287.0
sg3
S'104_31'
p160
sa(dp161
g2
F1565.0
sg3
S'104_32'
p162
sa(dp163
g2
F1486.0
sg3
S'104_33'
p164
sa(dp165
g2
F1115.0
sg3
S'104_34'
p166
sa(dp167
g2
F1074.0
sg3
S'104_35'
p168
sa(dp169
g2
F2315.0
sg3
S'104_36'
p170
sa(dp171
g2
F150.0
sg3
S'104_37'
p172
sa(dp173
g2
F2669.0
sg3
S'104_38'
p174
sa(dp175
g2
F3214.0
sg3
S'104_39'
p176
sa(dp177
g2
F3036.0
sg3
S'104_40'
p178
sa(dp179
g2
F1558.0
sg3
S'104_41'
p180
sa(dp181
g2
F2613.0
sg3
S'104_42'
p182
sa(dp183
g2
F3377.0
sg3
S'104_43'
p184
sa(dp185
g2
F1087.0
sg3
S'104_44'
p186
sa(dp187
g2
F2207.0
sg3
S'104_45'
p188
sa(dp189
g2
F2783.0
sg3
S'104_46'
p190
sa(dp191
g2
F1694.0
sg3
S'104_47'
p192
sa(dp193
g2
F2726.0
sg3
S'104_49'
p194
sa(dp195
g2
F3205.0
sg3
S'104_50'
p196
sa(dp197
g2
F1382.0
sg3
S'104_51'
p198
sa(dp199
g2
F2708.0
sg3
S'104_52'
p200
sa(dp201
g2
F299.0
sg3
S'104_53'
p202
sa(dp203
g2
F249.0
sg3
S'104_54'
p204
sa(dp205
g2
F368.0
sg3
S'104_56'
p206
sa(dp207
g2
F384.0
sg3
S'104_57'
p208
sa(dp209
g2
F801.0
sg3
S'10_01'
p210
sa(dp211
g2
F590.0
sg3
S'10_02'
p212
sa(dp213
g2
F362.0
sg3
S'10_03'
p214
sa(dp215
g2
F549.0
sg3
S'10_04'
p216
sa(dp217
g2
F436.0
sg3
S'10_05'
p218
sa(dp219
g2
F1413.0
sg3
S'132_01'
p220
sa(dp221
g2
F1141.0
sg3
S'132_02'
p222
sa(dp223
g2
F1477.0
sg3
S'132_03'
p224
sa(dp225
g2
F1350.0
sg3
S'132_04'
p226
sa(dp227
g2
F1316.0
sg3
S'132_05'
p228
sa(dp229
g2
F1328.0
sg3
S'132_06'
p230
sa(dp231
g2
F903.0
sg3
S'132_07'
p232
sa(dp233
g2
F1453.0
sg3
S'132_08'
p234
sa(dp235
g2
F1182.0
sg3
S'132_09'
p236
sa(dp237
g2
F1624.0
sg3
S'132_10'
p238
sa(dp239
g2
F1610.0
sg3
S'132_11'
p240
sa(dp241
g2
F1581.0
sg3
S'132_12'
p242
sa(dp243
g2
F9514.0
sg3
S'132_13'
p244
sa(dp245
g2
F7484.0
sg3
S'132_14'
p246
sa(dp247
g2
F6545.0
sg3
S'132_15'
p248
sa(dp249
g2
F9306.0
sg3
S'132_16'
p250
sa(dp251
g2
F268.0
sg3
S'132_17'
p252
sa(dp253
g2
F425.0
sg3
S'132_18'
p254
sa(dp255
g2
F271.0
sg3
S'132_19'
p256
sa(dp257
g2
F342.0
sg3
S'132_20'
p258
sa(dp259
g2
F354.0
sg3
S'132_21'
p260
sa(dp261
g2
F371.0
sg3
S'132_22'
p262
sa(dp263
g2
F746.0
sg3
S'132_23'
p264
sa(dp265
g2
F739.0
sg3
S'132_24'
p266
sa(dp267
g2
F556.0
sg3
S'132_25'
p268
sa(dp269
g2
F727.0
sg3
S'132_27'
p270
sa(dp271
g2
F718.0
sg3
S'132_28'
p272
sa(dp273
g2
F777.0
sg3
S'132_29'
p274
sa(dp275
g2
F783.0
sg3
S'132_30'
p276
sa(dp277
g2
F718.0
sg3
S'132_31'
p278
sa(dp279
g2
F644.0
sg3
S'132_32'
p280
sa(dp281
g2
F411.0
sg3
S'132_33'
p282
sa(dp283
g2
F517.0
sg3
S'132_34'
p284
sa(dp285
g2
F1265.0
sg3
S'132_35'
p286
sa(dp287
g2
F3895.0
sg3
S'132_36'
p288
sa(dp289
g2
F6731.0
sg3
S'132_37'
p290
sa(dp291
g2
F180.0
sg3
S'132_38'
p292
sa(dp293
g2
F6249.0
sg3
S'132_39'
p294
sa(dp295
g2
F847.0
sg3
S'132_40'
p296
sa(dp297
g2
F6359.0
sg3
S'132_41'
p298
sa(dp299
g2
F690.0
sg3
S'132_42'
p300
sa(dp301
g2
F804.0
sg3
S'132_43'
p302
sa(dp303
g2
F5203.0
sg3
S'132_44'
p304
sa(dp305
g2
F1531.0
sg3
S'132_45'
p306
sa(dp307
g2
F1223.0
sg3
S'132_46'
p308
sa(dp309
g2
F1510.0
sg3
S'132_47'
p310
sa(dp311
g2
F1625.0
sg3
S'132_48'
p312
sa(dp313
g2
F1748.0
sg3
S'132_49'
p314
sa(dp315
g2
F2139.0
sg3
S'132_50'
p316
sa(dp317
g2
F174.0
sg3
S'132_51'
p318
sa(dp319
g2
F1335.0
sg3
S'132_52'
p320
sa(dp321
g2
F6502.0
sg3
S'132_53'
p322
sa(dp323
g2
F6029.0
sg3
S'132_54'
p324
sa(dp325
g2
F3095.0
sg3
S'132_55'
p326
sa(dp327
g2
F7084.0
sg3
S'132_56'
p328
sa(dp329
g2
F872.0
sg3
S'136_01'
p330
sa(dp331
g2
F860.0
sg3
S'136_02'
p332
sa(dp333
g2
F1195.0
sg3
S'136_03'
p334
sa(dp335
g2
F1268.0
sg3
S'136_04'
p336
sa(dp337
g2
F1022.0
sg3
S'136_05'
p338
sa(dp339
g2
F943.0
sg3
S'136_06'
p340
sa(dp341
g2
F1107.0
sg3
S'136_07'
p342
sa(dp343
g2
F1332.0
sg3
S'136_08'
p344
sa(dp345
g2
F1130.0
sg3
S'136_09'
p346
sa(dp347
g2
F1337.0
sg3
S'136_10'
p348
sa(dp349
g2
F1438.0
sg3
S'136_11'
p350
sa(dp351
g2
F1307.0
sg3
S'136_12'
p352
sa(dp353
g2
F1252.0
sg3
S'136_13'
p354
sa(dp355
g2
F1065.0
sg3
S'136_14'
p356
sa(dp357
g2
F1350.0
sg3
S'136_15'
p358
sa(dp359
g2
F1259.0
sg3
S'136_16'
p360
sa(dp361
g2
F2120.0
sg3
S'136_17'
p362
sa(dp363
g2
F1492.0
sg3
S'136_18'
p364
sa(dp365
g2
F993.0
sg3
S'136_20'
p366
sa(dp367
g2
F601.0
sg3
S'136_21'
p368
sa(dp369
g2
F836.0
sg3
S'136_22'
p370
sa(dp371
g2
F742.0
sg3
S'136_23'
p372
sa(dp373
g2
F1075.0
sg3
S'136_24'
p374
sa(dp375
g2
F1789.0
sg3
S'136_25'
p376
sa(dp377
g2
F1422.0
sg3
S'136_26'
p378
sa(dp379
g2
F1087.0
sg3
S'136_27'
p380
sa(dp381
g2
F1114.0
sg3
S'136_28'
p382
sa(dp383
g2
F1182.0
sg3
S'136_29'
p384
sa(dp385
g2
F1272.0
sg3
S'136_30'
p386
sa(dp387
g2
F1436.0
sg3
S'136_31'
p388
sa(dp389
g2
F1443.0
sg3
S'136_32'
p390
sa(dp391
g2
F986.0
sg3
S'136_33'
p392
sa(dp393
g2
F763.0
sg3
S'141_20'
p394
sa(dp395
g2
F100.0
sg3
S'143_01'
p396
sa(dp397
g2
F208.0
sg3
S'143_02'
p398
sa(dp399
g2
F239.0
sg3
S'143_03'
p400
sa(dp401
g2
F1085.0
sg3
S'143_04'
p402
sa(dp403
g2
F338.0
sg3
S'143_05'
p404
sa(dp405
g2
F393.0
sg3
S'143_06'
p406
sa(dp407
g2
F557.0
sg3
S'143_07'
p408
sa(dp409
g2
F387.0
sg3
S'143_08'
p410
sa(dp411
g2
F545.0
sg3
S'143_09'
p412
sa(dp413
g2
F575.0
sg3
S'143_10'
p414
sa(dp415
g2
F657.0
sg3
S'143_11'
p416
sa(dp417
g2
F590.0
sg3
S'143_12'
p418
sa(dp419
g2
F581.0
sg3
S'143_13'
p420
sa(dp421
g2
F725.0
sg3
S'143_14'
p422
sa(dp423
g2
F708.0
sg3
S'143_15'
p424
sa(dp425
g2
F611.0
sg3
S'143_16'
p426
sa(dp427
g2
F632.0
sg3
S'143_17'
p428
sa(dp429
g2
F752.0
sg3
S'143_18'
p430
sa(dp431
g2
F839.0
sg3
S'143_19'
p432
sa(dp433
g2
F651.0
sg3
S'143_20'
p434
sa(dp435
g2
F2152.0
sg3
S'143_21'
p436
sa(dp437
g2
F1091.0
sg3
S'143_22'
p438
sa(dp439
g2
F814.0
sg3
S'143_23'
p440
sa(dp441
g2
F1005.0
sg3
S'143_24'
p442
sa(dp443
g2
F658.0
sg3
S'143_25'
p444
sa(dp445
g2
F635.0
sg3
S'143_26'
p446
sa(dp447
g2
F704.0
sg3
S'143_27'
p448
sa(dp449
g2
F643.0
sg3
S'143_28'
p450
sa(dp451
g2
F1080.0
sg3
S'143_29'
p452
sa(dp453
g2
F370.0
sg3
S'143_30'
p454
sa(dp455
g2
F423.0
sg3
S'143_31'
p456
sa(dp457
g2
F780.0
sg3
S'143_32'
p458
sa(dp459
g2
F361.0
sg3
S'143_33'
p460
sa(dp461
g2
F783.0
sg3
S'143_34'
p462
sa(dp463
g2
F1279.0
sg3
S'143_35'
p464
sa(dp465
g2
F761.0
sg3
S'143_36'
p466
sa(dp467
g2
F551.0
sg3
S'143_37'
p468
sa(dp469
g2
F1317.0
sg3
S'143_38'
p470
sa(dp471
g2
F1083.0
sg3
S'143_39'
p472
sa(dp473
g2
F966.0
sg3
S'143_40'
p474
sa(dp475
g2
F1167.0
sg3
S'143_41'
p476
sa(dp477
g2
F537.0
sg3
S'143_42'
p478
sa(dp479
g2
F5524.0
sg3
S'15_01'
p480
sa(dp481
g2
F21965.0
sg3
S'15_02'
p482
sa(dp483
g2
F12550.0
sg3
S'15_03'
p484
sa(dp485
g2
F22549.0
sg3
S'15_04'
p486
sa(dp487
g2
F22948.0
sg3
S'15_05'
p488
sa(dp489
g2
F3604.0
sg3
S'15_06'
p490
sa(dp491
g2
F5498.0
sg3
S'15_07'
p492
sa(dp493
g2
F3859.0
sg3
S'15_08'
p494
sa(dp495
g2
F7875.0
sg3
S'15_09'
p496
sa(dp497
g2
F2781.0
sg3
S'15_10'
p498
sa(dp499
g2
F9394.0
sg3
S'15_11'
p500
sa(dp501
g2
F9086.0
sg3
S'15_12'
p502
sa(dp503
g2
F9330.0
sg3
S'15_13'
p504
sa(dp505
g2
F8986.0
sg3
S'15_14'
p506
sa(dp507
g2
F347.0
sg3
S'16_34'
p508
sa(dp509
g2
F162.0
sg3
S'16_35'
p510
sa(dp511
g2
F884.0
sg3
S'26_01'
p512
sa(dp513
g2
F6058.0
sg3
S'26_02'
p514
sa(dp515
g2
F2238.0
sg3
S'26_03'
p516
sa(dp517
g2
F2165.0
sg3
S'26_04'
p518
sa(dp519
g2
F3635.0
sg3
S'26_05'
p520
sa(dp521
g2
F3602.0
sg3
S'26_06'
p522
sa(dp523
g2
F7757.0
sg3
S'26_07'
p524
sa(dp525
g2
F7670.0
sg3
S'26_08'
p526
sa(dp527
g2
F740.0
sg3
S'26_09'
p528
sa(dp529
g2
F697.0
sg3
S'26_10'
p530
sa(dp531
g2
F549.0
sg3
S'26_11'
p532
sa(dp533
g2
F1033.0
sg3
S'27_01'
p534
sa(dp535
g2
F3565.0
sg3
S'27_02'
p536
sa(dp537
g2
F2150.0
sg3
S'27_03'
p538
sa(dp539
g2
F3644.0
sg3
S'27_04'
p540
sa(dp541
g2
F7722.0
sg3
S'27_05'
p542
sa(dp543
g2
F2870.0
sg3
S'27_06'
p544
sa(dp545
g2
F1791.0
sg3
S'27_07'
p546
sa(dp547
g2
F3511.0
sg3
S'27_08'
p548
sa(dp549
g2
F3775.0
sg3
S'27_09'
p550
sa(dp551
g2
F7798.0
sg3
S'27_10'
p552
sa(dp553
g2
F1937.0
sg3
S'27_11'
p554
sa(dp555
g2
F482.0
sg3
S'32_01'
p556
sa(dp557
g2
F434.0
sg3
S'32_02'
p558
sa(dp559
g2
F3238.0
sg3
S'32_03'
p560
sa(dp561
g2
F2310.0
sg3
S'32_04'
p562
sa(dp563
g2
F3648.0
sg3
S'32_05'
p564
sa(dp565
g2
F7851.0
sg3
S'32_06'
p566
sa(dp567
g2
F3119.0
sg3
S'32_07'
p568
sa(dp569
g2
F2240.0
sg3
S'32_08'
p570
sa(dp571
g2
F7942.0
sg3
S'32_10'
p572
sa(dp573
g2
F14684.0
sg3
S'32_11'
p574
sa(dp575
g2
F14704.0
sg3
S'32_12'
p576
sa(dp577
g2
F3627.0
sg3
S'32_15'
p578
sa(dp579
g2
F4390.0
sg3
S'32_16'
p580
sa(dp581
g2
F3312.0
sg3
S'32_17'
p582
sa(dp583
g2
F3032.0
sg3
S'32_18'
p584
sa(dp585
g2
F2311.0
sg3
S'32_19'
p586
sa(dp587
g2
F3555.0
sg3
S'32_20'
p588
sa(dp589
g2
F2038.0
sg3
S'32_21'
p590
sa(dp591
g2
F358.0
sg3
S'35_01'
p592
sa(dp593
g2
F406.0
sg3
S'35_02'
p594
sa(dp595
g2
F406.0
sg3
S'35_15'
p596
sa(dp597
g2
F443.0
sg3
S'35_16'
p598
sa(dp599
g2
F167.0
sg3
S'35_17'
p600
sa(dp601
g2
F175.0
sg3
S'35_18'
p602
sa(dp603
g2
F160.0
sg3
S'35_19'
p604
sa(dp605
g2
F163.0
sg3
S'35_20'
p606
sa(dp607
g2
F161.0
sg3
S'35_21'
p608
sa(dp609
g2
F167.0
sg3
S'35_22'
p610
sa(dp611
g2
F162.0
sg3
S'35_23'
p612
sa(dp613
g2
F150.0
sg3
S'35_24'
p614
sa(dp615
g2
F165.0
sg3
S'35_25'
p616
sa(dp617
g2
F138.0
sg3
S'35_26'
p618
sa(dp619
g2
F9807.0
sg3
S'35_27'
p620
sa(dp621
g2
F417.0
sg3
S'35_28'
p622
sa(dp623
g2
F497.0
sg3
S'35_29'
p624
sa(dp625
g2
F412.0
sg3
S'35_30'
p626
sa(dp627
g2
F421.0
sg3
S'35_31'
p628
sa(dp629
g2
F392.0
sg3
S'35_32'
p630
sa(dp631
g2
F421.0
sg3
S'35_33'
p632
sa(dp633
g2
F415.0
sg3
S'35_34'
p634
sa(dp635
g2
F511.0
sg3
S'37_01'
p636
sa(dp637
g2
F352.0
sg3
S'38_01'
p638
sa(dp639
g2
F420.0
sg3
S'38_02'
p640
sa(dp641
g2
F761.0
sg3
S'38_03'
p642
sa(dp643
g2
F8631.0
sg3
S'38_04'
p644
sa(dp645
g2
F378.0
sg3
S'39_01'
p646
sa(dp647
g2
F400.0
sg3
S'39_02'
p648
sa(dp649
g2
F407.0
sg3
S'39_03'
p650
sa(dp651
g2
F410.0
sg3
S'39_04'
p652
sa(dp653
g2
F400.0
sg3
S'39_05'
p654
sa(dp655
g2
F368.0
sg3
S'39_06'
p656
sa(dp657
g2
F367.0
sg3
S'39_07'
p658
sa(dp659
g2
F350.0
sg3
S'39_08'
p660
sa(dp661
g2
F395.0
sg3
S'39_09'
p662
sa(dp663
g2
F391.0
sg3
S'39_10'
p664
sa(dp665
g2
F894.0
sg3
S'39_11'
p666
sa(dp667
g2
F427.0
sg3
S'39_12'
p668
sa(dp669
g2
F378.0
sg3
S'39_13'
p670
sa(dp671
g2
F399.0
sg3
S'39_14'
p672
sa(dp673
g2
F421.0
sg3
S'43_01'
p674
sa(dp675
g2
F904.0
sg3
S'43_02'
p676
sa(dp677
g2
F840.0
sg3
S'43_03'
p678
sa(dp679
g2
F456.0
sg3
S'45_01'
p680
sa(dp681
g2
F1806.0
sg3
S'55_01'
p682
sa(dp683
g2
F2180.0
sg3
S'55_02'
p684
sa(dp685
g2
F4530.0
sg3
S'55_03'
p686
sa(dp687
g2
F530.0
sg3
S'55_04'
p688
sa(dp689
g2
F2812.0
sg3
S'55_05'
p690
sa(dp691
g2
F9275.0
sg3
S'55_06'
p692
sa(dp693
g2
F4568.0
sg3
S'55_07'
p694
sa(dp695
g2
F5340.0
sg3
S'55_08'
p696
sa(dp697
g2
F4220.0
sg3
S'55_09'
p698
sa(dp699
g2
F1362.0
sg3
S'55_10'
p700
sa(dp701
g2
F4365.0
sg3
S'55_11'
p702
sa(dp703
g2
F2075.0
sg3
S'55_12'
p704
sa(dp705
g2
F9738.0
sg3
S'55_13'
p706
sa(dp707
g2
F5202.0
sg3
S'55_14'
p708
sa(dp709
g2
F9693.0
sg3
S'55_15'
p710
sa(dp711
g2
F6082.0
sg3
S'55_16'
p712
sa(dp713
g2
F6176.0
sg3
S'55_17'
p714
sa(dp715
g2
F5387.0
sg3
S'55_18'
p716
sa(dp717
g2
F4741.0
sg3
S'55_19'
p718
sa(dp719
g2
F4598.0
sg3
S'55_20'
p720
sa(dp721
g2
F3499.0
sg3
S'55_21'
p722
sa(dp723
g2
F6541.0
sg3
S'55_22'
p724
sa(dp725
g2
F5971.0
sg3
S'55_23'
p726
sa(dp727
g2
F9522.0
sg3
S'55_24'
p728
sa(dp729
g2
F3188.0
sg3
S'55_25'
p730
sa(dp731
g2
F4103.0
sg3
S'55_26'
p732
sa(dp733
g2
F5003.0
sg3
S'55_27'
p734
sa(dp735
g2
F8309.0
sg3
S'55_28'
p736
sa(dp737
g2
F2737.0
sg3
S'91_01'
p738
sa(dp739
g2
F1748.0
sg3
S'91_02'
p740
sa(dp741
g2
F1865.0
sg3
S'91_03'
p742
sa(dp743
g2
F2162.0
sg3
S'91_04'
p744
sa(dp745
g2
F2700.0
sg3
S'91_05'
p746
sa(dp747
g2
F136.0
sg3
S'91_06'
p748
sa(dp749
g2
F2582.0
sg3
S'91_07'
p750
sa(dp751
g2
F3972.0
sg3
S'91_08'
p752
sa(dp753
g2
F5402.0
sg3
S'91_09'
p754
sa(dp755
g2
F3175.0
sg3
S'91_10'
p756
sa(dp757
g2
F1863.0
sg3
S'91_11'
p758
sa(dp759
g2
F2222.0
sg3
S'91_12'
p760
sa(dp761
g2
F2960.0
sg3
S'91_13'
p762
sa(dp763
g2
F2769.0
sg3
S'91_14'
p764
sa(dp765
g2
F3090.0
sg3
S'91_15'
p766
sa(dp767
g2
F1892.0
sg3
S'91_16'
p768
sa(dp769
g2
F1520.0
sg3
S'91_17'
p770
sa(dp771
g2
F3363.0
sg3
S'91_18'
p772
sa(dp773
g2
F1885.0
sg3
S'91_19'
p774
sa(dp775
g2
F2774.0
sg3
S'91_20'
p776
sa(dp777
g2
F3870.0
sg3
S'91_21'
p778
sa(dp779
g2
F2106.0
sg3
S'91_22'
p780
sa(dp781
g2
F2668.0
sg3
S'91_23'
p782
sa(dp783
g2
F3804.0
sg3
S'91_24'
p784
sa(dp785
g2
F3137.0
sg3
S'91_25'
p786
sa(dp787
g2
F2082.0
sg3
S'91_26'
p788
sa(dp789
g2
F2894.0
sg3
S'91_27'
p790
sa(dp791
g2
F3307.0
sg3
S'91_28'
p792
sa(dp793
g2
F2181.0
sg3
S'91_29'
p794
sa(dp795
g2
F3139.0
sg3
S'91_30'
p796
sa(dp797
g2
F1992.0
sg3
S'91_31'
p798
sa(dp799
g2
F3724.0
sg3
S'91_32'
p800
sa(dp801
g2
F2698.0
sg3
S'91_33'
p802
sa(dp803
g2
F2208.0
sg3
S'91_34'
p804
sa(dp805
g2
F3052.0
sg3
S'91_35'
p806
sa(dp807
g2
F887.0
sg3
S'91_36'
p808
sa(dp809
g2
F315.0
sg3
S'91_37'
p810
sa(dp811
g2
F458.0
sg3
S'91_38'
p812
sa(dp813
g2
F446.0
sg3
S'91_39'
p814
sa(dp815
g2
F469.0
sg3
S'91_40'
p816
sa(dp817
g2
F503.0
sg3
S'91_41'
p818
sa(dp819
g2
F560.0
sg3
S'91_42'
p820
sa(dp821
g2
F227.0
sg3
S'91_43'
p822
sa(dp823
g2
F338.0
sg3
S'91_44'
p824
sa(dp825
g2
F371.0
sg3
S'91_45'
p826
sa(dp827
g2
F322.0
sg3
S'91_46'
p828
sa(dp829
g2
F469.0
sg3
S'91_47'
p830
sa(dp831
g2
F440.0
sg3
S'91_48'
p832
sa(dp833
g2
F482.0
sg3
S'91_49'
p834
sa(dp835
g2
F663.0
sg3
S'91_50'
p836
sa(dp837
g2
F484.0
sg3
S'91_51'
p838
sa(dp839
g2
F509.0
sg3
S'91_52'
p840
sa(dp841
g2
F555.0
sg3
S'91_53'
p842
sa(dp843
g2
F678.0
sg3
S'91_54'
p844
sa(dp845
g2
F467.0
sg3
S'91_55'
p846
sa(dp847
g2
F500.0
sg3
S'91_56'
p848
sa(dp849
g2
F1177.0
sg3
S'91_57'
p850
sa(dp851
g2
F493.0
sg3
S'91_58'
p852
sa(dp853
g2
F312.0
sg3
S'91_59'
p854
sa(dp855
g2
F367.0
sg3
S'91_60'
p856
sa(dp857
g2
F362.0
sg3
S'91_61'
p858
sa(dp859
g2
F1849.0
sg3
S'91_62'
p860
sa(dp861
g2
F316.0
sg3
S'ung_07_01'
p862
sa(dp863
g2
F329.0
sg3
S'ung_07_02'
p864
sa(dp865
g2
F415.0
sg3
S'ung_07_03'
p866
sa(dp867
g2
F449.0
sg3
S'ung_07_04'
p868
sa(dp869
g2
F517.0
sg3
S'ung_07_05'
p870
sa(dp871
g2
F417.0
sg3
S'ung_07_06'
p872
sa(dp873
g2
F379.0
sg3
S'ung_07_07'
p874
sa(dp875
g2
F362.0
sg3
S'ung_07_08'
p876
sa(dp877
g2
F306.0
sg3
S'ung_07_09'
p878
sa(dp879
g2
F301.0
sg3
S'ung_07_10'
p880
sa(dp881
g2
F315.0
sg3
S'ung_07_11'
p882
sa(dp883
g2
F263.0
sg3
S'ung_07_12'
p884
sa(dp885
g2
F885.0
sg3
S'ung_104_02'
p886
sa(dp887
g2
F1619.0
sg3
S'ung_104_03'
p888
sa(dp889
g2
F198.0
sg3
S'ung_104_04'
p890
sa(dp891
g2
F489.0
sg3
S'ung_104_05'
p892
sa(dp893
g2
F337.0
sg3
S'ung_104_06'
p894
sa(dp895
g2
F2304.0
sg3
S'ung_104_07'
p896
sa(dp897
g2
F314.0
sg3
S'ung_104_08'
p898
sa(dp899
g2
F349.0
sg3
S'ung_104_09'
p900
sa(dp901
g2
F334.0
sg3
S'ung_104_10'
p902
sa(dp903
g2
F539.0
sg3
S'ung_104_11'
p904
sa(dp905
g2
F421.0
sg3
S'ung_104_12'
p906
sa(dp907
g2
F550.0
sg3
S'ung_104_13'
p908
sa(dp909
g2
F709.0
sg3
S'ung_104_14'
p910
sa(dp911
g2
F208.0
sg3
S'ung_104_15'
p912
sa(dp913
g2
F327.0
sg3
S'ung_104_16'
p914
sa(dp915
g2
F465.0
sg3
S'ung_104_17'
p916
sa(dp917
g2
F921.0
sg3
S'ung_104_19'
p918
sa(dp919
g2
F701.0
sg3
S'ung_104_20'
p920
sa(dp921
g2
F789.0
sg3
S'ung_104_21'
p922
sa(dp923
g2
F1838.0
sg3
S'ung_104_22'
p924
sa(dp925
g2
F1834.0
sg3
S'ung_104_23'
p926
sa(dp927
g2
F1896.0
sg3
S'ung_104_24'
p928
sa(dp929
g2
F2451.0
sg3
S'ung_104_25'
p930
sa(dp931
g2
F1100.0
sg3
S'ung_104_26'
p932
sa(dp933
g2
F2434.0
sg3
S'ung_104_27'
p934
sa(dp935
g2
F566.0
sg3
S'ung_104_28'
p936
sa(dp937
g2
F480.0
sg3
S'ung_104_29'
p938
sa(dp939
g2
F1365.0
sg3
S'ung_104_30'
p940
sa(dp941
g2
F1287.0
sg3
S'ung_104_31'
p942
sa(dp943
g2
F1565.0
sg3
S'ung_104_32'
p944
sa(dp945
g2
F1486.0
sg3
S'ung_104_33'
p946
sa(dp947
g2
F1115.0
sg3
S'ung_104_34'
p948
sa(dp949
g2
F1074.0
sg3
S'ung_104_35'
p950
sa(dp951
g2
F2315.0
sg3
S'ung_104_36'
p952
sa(dp953
g2
F150.0
sg3
S'ung_104_37'
p954
sa(dp955
g2
F2669.0
sg3
S'ung_104_38'
p956
sa(dp957
g2
F3214.0
sg3
S'ung_104_39'
p958
sa(dp959
g2
F3036.0
sg3
S'ung_104_40'
p960
sa(dp961
g2
F1558.0
sg3
S'ung_104_41'
p962
sa(dp963
g2
F2613.0
sg3
S'ung_104_42'
p964
sa(dp965
g2
F3377.0
sg3
S'ung_104_43'
p966
sa(dp967
g2
F1087.0
sg3
S'ung_104_44'
p968
sa(dp969
g2
F2207.0
sg3
S'ung_104_45'
p970
sa(dp971
g2
F2783.0
sg3
S'ung_104_46'
p972
sa(dp973
g2
F1694.0
sg3
S'ung_104_47'
p974
sa(dp975
g2
F120.0
sg3
S'ung_104_48'
p976
sa(dp977
g2
F2726.0
sg3
S'ung_104_49'
p978
sa(dp979
g2
F3205.0
sg3
S'ung_104_50'
p980
sa(dp981
g2
F1382.0
sg3
S'ung_104_51'
p982
sa(dp983
g2
F2708.0
sg3
S'ung_104_52'
p984
sa(dp985
g2
F299.0
sg3
S'ung_104_53'
p986
sa(dp987
g2
F249.0
sg3
S'ung_104_54'
p988
sa(dp989
g2
F368.0
sg3
S'ung_104_56'
p990
sa(dp991
g2
F384.0
sg3
S'ung_104_57'
p992
sa(dp993
g2
F801.0
sg3
S'ung_10_01'
p994
sa(dp995
g2
F590.0
sg3
S'ung_10_02'
p996
sa(dp997
g2
F362.0
sg3
S'ung_10_03'
p998
sa(dp999
g2
F549.0
sg3
S'ung_10_04'
p1000
sa(dp1001
g2
F436.0
sg3
S'ung_10_05'
p1002
sa(dp1003
g2
F572.0
sg3
S'ung_10_06'
p1004
sa(dp1005
g2
F835.0
sg3
S'ung_113_01'
p1006
sa(dp1007
g2
F529.0
sg3
S'ung_113_02'
p1008
sa(dp1009
g2
F485.0
sg3
S'ung_113_03'
p1010
sa(dp1011
g2
F970.0
sg3
S'ung_113_04'
p1012
sa(dp1013
g2
F2660.0
sg3
S'ung_113_05'
p1014
sa(dp1015
g2
F2026.0
sg3
S'ung_113_06'
p1016
sa(dp1017
g2
F582.0
sg3
S'ung_113_07'
p1018
sa(dp1019
g2
F1845.0
sg3
S'ung_113_08'
p1020
sa(dp1021
g2
F1198.0
sg3
S'ung_113_09'
p1022
sa(dp1023
g2
F1334.0
sg3
S'ung_113_10'
p1024
sa(dp1025
g2
F278.0
sg3
S'ung_113_11'
p1026
sa(dp1027
g2
F397.0
sg3
S'ung_113_12'
p1028
sa(dp1029
g2
F1343.0
sg3
S'ung_113_13'
p1030
sa(dp1031
g2
F1012.0
sg3
S'ung_113_14'
p1032
sa(dp1033
g2
F953.0
sg3
S'ung_113_15'
p1034
sa(dp1035
g2
F699.0
sg3
S'ung_113_16'
p1036
sa(dp1037
g2
F1854.0
sg3
S'ung_113_17'
p1038
sa(dp1039
g2
F2196.0
sg3
S'ung_113_18'
p1040
sa(dp1041
g2
F803.0
sg3
S'ung_113_19'
p1042
sa(dp1043
g2
F1448.0
sg3
S'ung_113_20'
p1044
sa(dp1045
g2
F1367.0
sg3
S'ung_113_21'
p1046
sa(dp1047
g2
F1193.0
sg3
S'ung_113_22'
p1048
sa(dp1049
g2
F1010.0
sg3
S'ung_113_23'
p1050
sa(dp1051
g2
F1105.0
sg3
S'ung_113_24'
p1052
sa(dp1053
g2
F689.0
sg3
S'ung_113_25'
p1054
sa(dp1055
g2
F1316.0
sg3
S'ung_113_26'
p1056
sa(dp1057
g2
F357.0
sg3
S'ung_113_27'
p1058
sa(dp1059
g2
F5153.0
sg3
S'ung_113_28'
p1060
sa(dp1061
g2
F4318.0
sg3
S'ung_113_29'
p1062
sa(dp1063
g2
F1221.0
sg3
S'ung_120_01'
p1064
sa(dp1065
g2
F1426.0
sg3
S'ung_120_02'
p1066
sa(dp1067
g2
F1515.0
sg3
S'ung_120_03'
p1068
sa(dp1069
g2
F6503.0
sg3
S'ung_120_04'
p1070
sa(dp1071
g2
F1353.0
sg3
S'ung_120_05'
p1072
sa(dp1073
g2
F1433.0
sg3
S'ung_120_06'
p1074
sa(dp1075
g2
F1113.0
sg3
S'ung_120_07'
p1076
sa(dp1077
g2
F1202.0
sg3
S'ung_120_08'
p1078
sa(dp1079
g2
F1277.0
sg3
S'ung_120_09'
p1080
sa(dp1081
g2
F1225.0
sg3
S'ung_120_10'
p1082
sa(dp1083
g2
F1240.0
sg3
S'ung_120_11'
p1084
sa(dp1085
g2
F1045.0
sg3
S'ung_120_12'
p1086
sa(dp1087
g2
F1001.0
sg3
S'ung_120_13'
p1088
sa(dp1089
g2
F1283.0
sg3
S'ung_120_14'
p1090
sa(dp1091
g2
F1470.0
sg3
S'ung_120_15'
p1092
sa(dp1093
g2
F1516.0
sg3
S'ung_120_16'
p1094
sa(dp1095
g2
F1154.0
sg3
S'ung_120_17'
p1096
sa(dp1097
g2
F1368.0
sg3
S'ung_120_18'
p1098
sa(dp1099
g2
F12792.0
sg3
S'ung_120_19'
p1100
sa(dp1101
g2
F10735.0
sg3
S'ung_120_20'
p1102
sa(dp1103
g2
F3113.0
sg3
S'ung_120_21'
p1104
sa(dp1105
g2
F1324.0
sg3
S'ung_120_22'
p1106
sa(dp1107
g2
F523.0
sg3
S'ung_12_01'
p1108
sa(dp1109
g2
F673.0
sg3
S'ung_12_02'
p1110
sa(dp1111
g2
F565.0
sg3
S'ung_12_03'
p1112
sa(dp1113
g2
F17799.0
sg3
S'ung_12_04'
p1114
sa(dp1115
g2
F1413.0
sg3
S'ung_132_01'
p1116
sa(dp1117
g2
F1141.0
sg3
S'ung_132_02'
p1118
sa(dp1119
g2
F1477.0
sg3
S'ung_132_03'
p1120
sa(dp1121
g2
F1350.0
sg3
S'ung_132_04'
p1122
sa(dp1123
g2
F1316.0
sg3
S'ung_132_05'
p1124
sa(dp1125
g2
F1328.0
sg3
S'ung_132_06'
p1126
sa(dp1127
g2
F903.0
sg3
S'ung_132_07'
p1128
sa(dp1129
g2
F1453.0
sg3
S'ung_132_08'
p1130
sa(dp1131
g2
F1182.0
sg3
S'ung_132_09'
p1132
sa(dp1133
g2
F1624.0
sg3
S'ung_132_10'
p1134
sa(dp1135
g2
F1610.0
sg3
S'ung_132_11'
p1136
sa(dp1137
g2
F1581.0
sg3
S'ung_132_12'
p1138
sa(dp1139
g2
F9514.0
sg3
S'ung_132_13'
p1140
sa(dp1141
g2
F7484.0
sg3
S'ung_132_14'
p1142
sa(dp1143
g2
F6545.0
sg3
S'ung_132_15'
p1144
sa(dp1145
g2
F9306.0
sg3
S'ung_132_16'
p1146
sa(dp1147
g2
F268.0
sg3
S'ung_132_17'
p1148
sa(dp1149
g2
F425.0
sg3
S'ung_132_18'
p1150
sa(dp1151
g2
F271.0
sg3
S'ung_132_19'
p1152
sa(dp1153
g2
F342.0
sg3
S'ung_132_20'
p1154
sa(dp1155
g2
F354.0
sg3
S'ung_132_21'
p1156
sa(dp1157
g2
F371.0
sg3
S'ung_132_22'
p1158
sa(dp1159
g2
F746.0
sg3
S'ung_132_23'
p1160
sa(dp1161
g2
F739.0
sg3
S'ung_132_24'
p1162
sa(dp1163
g2
F556.0
sg3
S'ung_132_25'
p1164
sa(dp1165
g2
F637.0
sg3
S'ung_132_26'
p1166
sa(dp1167
g2
F727.0
sg3
S'ung_132_27'
p1168
sa(dp1169
g2
F718.0
sg3
S'ung_132_28'
p1170
sa(dp1171
g2
F777.0
sg3
S'ung_132_29'
p1172
sa(dp1173
g2
F783.0
sg3
S'ung_132_30'
p1174
sa(dp1175
g2
F718.0
sg3
S'ung_132_31'
p1176
sa(dp1177
g2
F644.0
sg3
S'ung_132_32'
p1178
sa(dp1179
g2
F411.0
sg3
S'ung_132_33'
p1180
sa(dp1181
g2
F517.0
sg3
S'ung_132_34'
p1182
sa(dp1183
g2
F1265.0
sg3
S'ung_132_35'
p1184
sa(dp1185
g2
F3895.0
sg3
S'ung_132_36'
p1186
sa(dp1187
g2
F6731.0
sg3
S'ung_132_37'
p1188
sa(dp1189
g2
F180.0
sg3
S'ung_132_38'
p1190
sa(dp1191
g2
F6249.0
sg3
S'ung_132_39'
p1192
sa(dp1193
g2
F847.0
sg3
S'ung_132_40'
p1194
sa(dp1195
g2
F6359.0
sg3
S'ung_132_41'
p1196
sa(dp1197
g2
F690.0
sg3
S'ung_132_42'
p1198
sa(dp1199
g2
F804.0
sg3
S'ung_132_43'
p1200
sa(dp1201
g2
F5203.0
sg3
S'ung_132_44'
p1202
sa(dp1203
g2
F1531.0
sg3
S'ung_132_45'
p1204
sa(dp1205
g2
F1223.0
sg3
S'ung_132_46'
p1206
sa(dp1207
g2
F1510.0
sg3
S'ung_132_47'
p1208
sa(dp1209
g2
F1625.0
sg3
S'ung_132_48'
p1210
sa(dp1211
g2
F1748.0
sg3
S'ung_132_49'
p1212
sa(dp1213
g2
F2139.0
sg3
S'ung_132_50'
p1214
sa(dp1215
g2
F174.0
sg3
S'ung_132_51'
p1216
sa(dp1217
g2
F1335.0
sg3
S'ung_132_52'
p1218
sa(dp1219
g2
F6502.0
sg3
S'ung_132_53'
p1220
sa(dp1221
g2
F6029.0
sg3
S'ung_132_54'
p1222
sa(dp1223
g2
F3095.0
sg3
S'ung_132_55'
p1224
sa(dp1225
g2
F7084.0
sg3
S'ung_132_56'
p1226
sa(dp1227
g2
F872.0
sg3
S'ung_136_01'
p1228
sa(dp1229
g2
F860.0
sg3
S'ung_136_02'
p1230
sa(dp1231
g2
F1195.0
sg3
S'ung_136_03'
p1232
sa(dp1233
g2
F1268.0
sg3
S'ung_136_04'
p1234
sa(dp1235
g2
F1022.0
sg3
S'ung_136_05'
p1236
sa(dp1237
g2
F943.0
sg3
S'ung_136_06'
p1238
sa(dp1239
g2
F1107.0
sg3
S'ung_136_07'
p1240
sa(dp1241
g2
F1332.0
sg3
S'ung_136_08'
p1242
sa(dp1243
g2
F1130.0
sg3
S'ung_136_09'
p1244
sa(dp1245
g2
F1337.0
sg3
S'ung_136_10'
p1246
sa(dp1247
g2
F1438.0
sg3
S'ung_136_11'
p1248
sa(dp1249
g2
F1307.0
sg3
S'ung_136_12'
p1250
sa(dp1251
g2
F1252.0
sg3
S'ung_136_13'
p1252
sa(dp1253
g2
F1065.0
sg3
S'ung_136_14'
p1254
sa(dp1255
g2
F1350.0
sg3
S'ung_136_15'
p1256
sa(dp1257
g2
F1259.0
sg3
S'ung_136_16'
p1258
sa(dp1259
g2
F2120.0
sg3
S'ung_136_17'
p1260
sa(dp1261
g2
F1492.0
sg3
S'ung_136_18'
p1262
sa(dp1263
g2
F993.0
sg3
S'ung_136_20'
p1264
sa(dp1265
g2
F601.0
sg3
S'ung_136_21'
p1266
sa(dp1267
g2
F836.0
sg3
S'ung_136_22'
p1268
sa(dp1269
g2
F742.0
sg3
S'ung_136_23'
p1270
sa(dp1271
g2
F1075.0
sg3
S'ung_136_24'
p1272
sa(dp1273
g2
F1789.0
sg3
S'ung_136_25'
p1274
sa(dp1275
g2
F1422.0
sg3
S'ung_136_26'
p1276
sa(dp1277
g2
F1087.0
sg3
S'ung_136_27'
p1278
sa(dp1279
g2
F1114.0
sg3
S'ung_136_28'
p1280
sa(dp1281
g2
F1182.0
sg3
S'ung_136_29'
p1282
sa(dp1283
g2
F1272.0
sg3
S'ung_136_30'
p1284
sa(dp1285
g2
F1436.0
sg3
S'ung_136_31'
p1286
sa(dp1287
g2
F1443.0
sg3
S'ung_136_32'
p1288
sa(dp1289
g2
F986.0
sg3
S'ung_136_33'
p1290
sa(dp1291
g2
F1090.0
sg3
S'ung_139_01'
p1292
sa(dp1293
g2
F937.0
sg3
S'ung_139_02'
p1294
sa(dp1295
g2
F984.0
sg3
S'ung_139_03'
p1296
sa(dp1297
g2
F883.0
sg3
S'ung_139_04'
p1298
sa(dp1299
g2
F511.0
sg3
S'ung_139_05'
p1300
sa(dp1301
g2
F1352.0
sg3
S'ung_139_06'
p1302
sa(dp1303
g2
F505.0
sg3
S'ung_139_07'
p1304
sa(dp1305
g2
F1008.0
sg3
S'ung_139_08'
p1306
sa(dp1307
g2
F988.0
sg3
S'ung_139_09'
p1308
sa(dp1309
g2
F690.0
sg3
S'ung_139_10'
p1310
sa(dp1311
g2
F320.0
sg3
S'ung_139_11'
p1312
sa(dp1313
g2
F978.0
sg3
S'ung_139_12'
p1314
sa(dp1315
g2
F1387.0
sg3
S'ung_139_13'
p1316
sa(dp1317
g2
F990.0
sg3
S'ung_139_14'
p1318
sa(dp1319
g2
F1078.0
sg3
S'ung_139_15'
p1320
sa(dp1321
g2
F653.0
sg3
S'ung_139_16'
p1322
sa(dp1323
g2
F719.0
sg3
S'ung_139_17'
p1324
sa(dp1325
g2
F854.0
sg3
S'ung_139_18'
p1326
sa(dp1327
g2
F1000.0
sg3
S'ung_139_19'
p1328
sa(dp1329
g2
F1570.0
sg3
S'ung_139_20'
p1330
sa(dp1331
g2
F1310.0
sg3
S'ung_139_21'
p1332
sa(dp1333
g2
F1425.0
sg3
S'ung_139_22'
p1334
sa(dp1335
g2
F1592.0
sg3
S'ung_139_23'
p1336
sa(dp1337
g2
F716.0
sg3
S'ung_139_24'
p1338
sa(dp1339
g2
F663.0
sg3
S'ung_139_25'
p1340
sa(dp1341
g2
F651.0
sg3
S'ung_139_26'
p1342
sa(dp1343
g2
F727.0
sg3
S'ung_139_27'
p1344
sa(dp1345
g2
F2970.0
sg3
S'ung_139_28'
p1346
sa(dp1347
g2
F2104.0
sg3
S'ung_139_29'
p1348
sa(dp1349
g2
F1261.0
sg3
S'ung_139_30'
p1350
sa(dp1351
g2
F2106.0
sg3
S'ung_139_31'
p1352
sa(dp1353
g2
F1894.0
sg3
S'ung_139_32'
p1354
sa(dp1355
g2
F2997.0
sg3
S'ung_139_33'
p1356
sa(dp1357
g2
F1122.0
sg3
S'ung_139_34'
p1358
sa(dp1359
g2
F100.0
sg3
S'ung_143_01'
p1360
sa(dp1361
g2
F208.0
sg3
S'ung_143_02'
p1362
sa(dp1363
g2
F239.0
sg3
S'ung_143_03'
p1364
sa(dp1365
g2
F1085.0
sg3
S'ung_143_04'
p1366
sa(dp1367
g2
F338.0
sg3
S'ung_143_05'
p1368
sa(dp1369
g2
F393.0
sg3
S'ung_143_06'
p1370
sa(dp1371
g2
F557.0
sg3
S'ung_143_07'
p1372
sa(dp1373
g2
F387.0
sg3
S'ung_143_08'
p1374
sa(dp1375
g2
F545.0
sg3
S'ung_143_09'
p1376
sa(dp1377
g2
F575.0
sg3
S'ung_143_10'
p1378
sa(dp1379
g2
F657.0
sg3
S'ung_143_11'
p1380
sa(dp1381
g2
F590.0
sg3
S'ung_143_12'
p1382
sa(dp1383
g2
F581.0
sg3
S'ung_143_13'
p1384
sa(dp1385
g2
F725.0
sg3
S'ung_143_14'
p1386
sa(dp1387
g2
F708.0
sg3
S'ung_143_15'
p1388
sa(dp1389
g2
F611.0
sg3
S'ung_143_16'
p1390
sa(dp1391
g2
F632.0
sg3
S'ung_143_17'
p1392
sa(dp1393
g2
F752.0
sg3
S'ung_143_18'
p1394
sa(dp1395
g2
F839.0
sg3
S'ung_143_19'
p1396
sa(dp1397
g2
F651.0
sg3
S'ung_143_20'
p1398
sa(dp1399
g2
F2152.0
sg3
S'ung_143_21'
p1400
sa(dp1401
g2
F1091.0
sg3
S'ung_143_22'
p1402
sa(dp1403
g2
F814.0
sg3
S'ung_143_23'
p1404
sa(dp1405
g2
F1005.0
sg3
S'ung_143_24'
p1406
sa(dp1407
g2
F658.0
sg3
S'ung_143_25'
p1408
sa(dp1409
g2
F635.0
sg3
S'ung_143_26'
p1410
sa(dp1411
g2
F704.0
sg3
S'ung_143_27'
p1412
sa(dp1413
g2
F643.0
sg3
S'ung_143_28'
p1414
sa(dp1415
g2
F1080.0
sg3
S'ung_143_29'
p1416
sa(dp1417
g2
F370.0
sg3
S'ung_143_30'
p1418
sa(dp1419
g2
F423.0
sg3
S'ung_143_31'
p1420
sa(dp1421
g2
F780.0
sg3
S'ung_143_32'
p1422
sa(dp1423
g2
F361.0
sg3
S'ung_143_33'
p1424
sa(dp1425
g2
F783.0
sg3
S'ung_143_34'
p1426
sa(dp1427
g2
F1279.0
sg3
S'ung_143_35'
p1428
sa(dp1429
g2
F761.0
sg3
S'ung_143_36'
p1430
sa(dp1431
g2
F551.0
sg3
S'ung_143_37'
p1432
sa(dp1433
g2
F1317.0
sg3
S'ung_143_38'
p1434
sa(dp1435
g2
F1083.0
sg3
S'ung_143_39'
p1436
sa(dp1437
g2
F966.0
sg3
S'ung_143_40'
p1438
sa(dp1439
g2
F1167.0
sg3
S'ung_143_41'
p1440
sa(dp1441
g2
F537.0
sg3
S'ung_143_42'
p1442
sa(dp1443
g2
F1319.0
sg3
S'ung_47_01'
p1444
sa(dp1445
g2
F652.0
sg3
S'ung_49_01'
p1446
sa(dp1447
g2
F2085.0
sg3
S'ung_49_02'
p1448
sa(dp1449
g2
F1504.0
sg3
S'ung_49_03'
p1450
sa(dp1451
g2
F251.0
sg3
S'ung_49_04'
p1452
sa(dp1453
g2
F164.0
sg3
S'ung_49_05'
p1454
sa(dp1455
g2
F481.0
sg3
S'ung_49_06'
p1456
sa(dp1457
g2
F471.0
sg3
S'ung_49_07'
p1458
sa(dp1459
g2
F575.0
sg3
S'ung_49_08'
p1460
sa(dp1461
g2
F1917.0
sg3
S'ung_49_09'
p1462
sa(dp1463
g2
F1424.0
sg3
S'ung_49_10'
p1464
sa(dp1465
g2
F1197.0
sg3
S'ung_49_11'
p1466
sa(dp1467
g2
F1131.0
sg3
S'ung_49_12'
p1468
sa(dp1469
g2
F523.0
sg3
S'ung_49_13'
p1470
sa(dp1471
g2
F619.0
sg3
S'ung_49_14'
p1472
sa(dp1473
g2
F947.0
sg3
S'ung_49_15'
p1474
sa(dp1475
g2
F1136.0
sg3
S'ung_49_16'
p1476
sa(dp1477
g2
F750.0
sg3
S'ung_49_17'
p1478
sa(dp1479
g2
F1102.0
sg3
S'ung_49_18'
p1480
sa(dp1481
g2
F957.0
sg3
S'ung_49_19'
p1482
sa(dp1483
g2
F898.0
sg3
S'ung_49_20'
p1484
sa(dp1485
g2
F2422.0
sg3
S'ung_49_21'
p1486
sa(dp1487
g2
F1288.0
sg3
S'ung_49_22'
p1488
sa(dp1489
g2
F464.0
sg3
S'ung_74_01'
p1490
sa(dp1491
g2
F265.0
sg3
S'ung_74_02'
p1492
sa(dp1493
g2
F396.0
sg3
S'ung_74_03'
p1494
sa(dp1495
g2
F315.0
sg3
S'ung_74_04'
p1496
sa(dp1497
g2
F323.0
sg3
S'ung_74_05'
p1498
sa(dp1499
g2
F325.0
sg3
S'ung_74_06'
p1500
sa(dp1501
g2
F311.0
sg3
S'ung_74_07'
p1502
sa(dp1503
g2
F168.0
sg3
S'ung_74_08'
p1504
sa(dp1505
g2
F199.0
sg3
S'ung_74_09'
p1506
sa(dp1507
g2
F335.0
sg3
S'ung_74_10'
p1508
sa(dp1509
g2
F346.0
sg3
S'ung_74_11'
p1510
sa(dp1511
g2
F302.0
sg3
S'ung_74_12'
p1512
sa(dp1513
g2
F2524.0
sg3
S'ung_74_13'
p1514
sa(dp1515
g2
F447.0
sg3
S'ung_74_14'
p1516
sa(dp1517
g2
F439.0
sg3
S'ung_74_15'
p1518
sa(dp1519
g2
F493.0
sg3
S'ung_74_16'
p1520
sa(dp1521
g2
F521.0
sg3
S'ung_74_17'
p1522
sa(dp1523
g2
F492.0
sg3
S'ung_74_18'
p1524
sa(dp1525
g2
F488.0
sg3
S'ung_74_19'
p1526
sa(dp1527
g2
F576.0
sg3
S'ung_74_20'
p1528
sa(dp1529
g2
F1090.0
sg3
S'ung_77_01'
p1530
sa(dp1531
g2
F937.0
sg3
S'ung_77_02'
p1532
sa(dp1533
g2
F984.0
sg3
S'ung_77_03'
p1534
sa(dp1535
g2
F883.0
sg3
S'ung_77_04'
p1536
sa(dp1537
g2
F511.0
sg3
S'ung_77_05'
p1538
sa(dp1539
g2
F1352.0
sg3
S'ung_77_06'
p1540
sa(dp1541
g2
F505.0
sg3
S'ung_77_07'
p1542
sa(dp1543
g2
F1008.0
sg3
S'ung_77_08'
p1544
sa(dp1545
g2
F988.0
sg3
S'ung_77_09'
p1546
sa(dp1547
g2
F690.0
sg3
S'ung_77_10'
p1548
sa(dp1549
g2
F320.0
sg3
S'ung_77_11'
p1550
sa(dp1551
g2
F978.0
sg3
S'ung_77_12'
p1552
sa(dp1553
g2
F1387.0
sg3
S'ung_77_13'
p1554
sa(dp1555
g2
F990.0
sg3
S'ung_77_14'
p1556
sa(dp1557
g2
F1078.0
sg3
S'ung_77_15'
p1558
sa(dp1559
g2
F653.0
sg3
S'ung_77_16'
p1560
sa(dp1561
g2
F719.0
sg3
S'ung_77_17'
p1562
sa(dp1563
g2
F854.0
sg3
S'ung_77_18'
p1564
sa(dp1565
g2
F1000.0
sg3
S'ung_77_19'
p1566
sa(dp1567
g2
F1570.0
sg3
S'ung_77_20'
p1568
sa(dp1569
g2
F1310.0
sg3
S'ung_77_21'
p1570
sa(dp1571
g2
F1425.0
sg3
S'ung_77_22'
p1572
sa(dp1573
g2
F1592.0
sg3
S'ung_77_23'
p1574
sa(dp1575
g2
F716.0
sg3
S'ung_77_24'
p1576
sa(dp1577
g2
F663.0
sg3
S'ung_77_25'
p1578
sa(dp1579
g2
F651.0
sg3
S'ung_77_26'
p1580
sa(dp1581
g2
F727.0
sg3
S'ung_77_27'
p1582
sa(dp1583
g2
F2970.0
sg3
S'ung_77_28'
p1584
sa(dp1585
g2
F2104.0
sg3
S'ung_77_29'
p1586
sa(dp1587
g2
F1261.0
sg3
S'ung_77_30'
p1588
sa(dp1589
g2
F2106.0
sg3
S'ung_77_31'
p1590
sa(dp1591
g2
F1894.0
sg3
S'ung_77_32'
p1592
sa(dp1593
g2
F2997.0
sg3
S'ung_77_33'
p1594
sa(dp1595
g2
F1122.0
sg3
S'ung_77_34'
p1596
sa(dp1597
g2
F10.0
sg3
S'ung_82_01'
p1598
sa(dp1599
g2
F1808.0
sg3
S'ung_82_02'
p1600
sa(dp1601
g2
F1899.0
sg3
S'ung_82_03'
p1602
sa(dp1603
g2
F908.0
sg3
S'ung_82_04'
p1604
sa(dp1605
g2
F2247.0
sg3
S'ung_82_05'
p1606
sa(dp1607
g2
F1091.0
sg3
S'ung_82_06'
p1608
sa(dp1609
g2
F1198.0
sg3
S'ung_82_07'
p1610
sa(dp1611
g2
F1699.0
sg3
S'ung_82_08'
p1612
sa(dp1613
g2
F1292.0
sg3
S'ung_82_09'
p1614
sa(dp1615
g2
F564.0
sg3
S'ung_82_10'
p1616
sa(dp1617
g2
F695.0
sg3
S'ung_82_11'
p1618
sa(dp1619
g2
F402.0
sg3
S'ung_82_12'
p1620
sa(dp1621
g2
F413.0
sg3
S'ung_82_13'
p1622
sa(dp1623
g2
F907.0
sg3
S'ung_82_14'
p1624
sa(dp1625
g2
F716.0
sg3
S'ung_82_15'
p1626
sa(dp1627
g2
F1333.0
sg3
S'ung_82_16'
p1628
sa(dp1629
g2
F1580.0
sg3
S'ung_82_17'
p1630
sa(dp1631
g2
F10.0
sg3
S'ung_82_18'
p1632
sa(dp1633
g2
F2737.0
sg3
S'ung_91_01'
p1634
sa(dp1635
g2
F1748.0
sg3
S'ung_91_02'
p1636
sa(dp1637
g2
F1865.0
sg3
S'ung_91_03'
p1638
sa(dp1639
g2
F2162.0
sg3
S'ung_91_04'
p1640
sa(dp1641
g2
F2700.0
sg3
S'ung_91_05'
p1642
sa(dp1643
g2
F136.0
sg3
S'ung_91_06'
p1644
sa(dp1645
g2
F2582.0
sg3
S'ung_91_07'
p1646
sa(dp1647
g2
F3972.0
sg3
S'ung_91_08'
p1648
sa(dp1649
g2
F5402.0
sg3
S'ung_91_09'
p1650
sa(dp1651
g2
F3175.0
sg3
S'ung_91_10'
p1652
sa(dp1653
g2
F1863.0
sg3
S'ung_91_11'
p1654
sa(dp1655
g2
F2222.0
sg3
S'ung_91_12'
p1656
sa(dp1657
g2
F2960.0
sg3
S'ung_91_13'
p1658
sa(dp1659
g2
F2769.0
sg3
S'ung_91_14'
p1660
sa(dp1661
g2
F3090.0
sg3
S'ung_91_15'
p1662
sa(dp1663
g2
F1892.0
sg3
S'ung_91_16'
p1664
sa(dp1665
g2
F1520.0
sg3
S'ung_91_17'
p1666
sa(dp1667
g2
F3363.0
sg3
S'ung_91_18'
p1668
sa(dp1669
g2
F1885.0
sg3
S'ung_91_19'
p1670
sa(dp1671
g2
F2774.0
sg3
S'ung_91_20'
p1672
sa(dp1673
g2
F3870.0
sg3
S'ung_91_21'
p1674
sa(dp1675
g2
F2106.0
sg3
S'ung_91_22'
p1676
sa(dp1677
g2
F2668.0
sg3
S'ung_91_23'
p1678
sa(dp1679
g2
F3804.0
sg3
S'ung_91_24'
p1680
sa(dp1681
g2
F3137.0
sg3
S'ung_91_25'
p1682
sa(dp1683
g2
F2082.0
sg3
S'ung_91_26'
p1684
sa(dp1685
g2
F2894.0
sg3
S'ung_91_27'
p1686
sa(dp1687
g2
F3307.0
sg3
S'ung_91_28'
p1688
sa(dp1689
g2
F2181.0
sg3
S'ung_91_29'
p1690
sa(dp1691
g2
F3139.0
sg3
S'ung_91_30'
p1692
sa(dp1693
g2
F1992.0
sg3
S'ung_91_31'
p1694
sa(dp1695
g2
F3724.0
sg3
S'ung_91_32'
p1696
sa(dp1697
g2
F2698.0
sg3
S'ung_91_33'
p1698
sa(dp1699
g2
F2208.0
sg3
S'ung_91_34'
p1700
sa(dp1701
g2
F3052.0
sg3
S'ung_91_35'
p1702
sa(dp1703
g2
F887.0
sg3
S'ung_91_36'
p1704
sa(dp1705
g2
F315.0
sg3
S'ung_91_37'
p1706
sa(dp1707
g2
F458.0
sg3
S'ung_91_38'
p1708
sa(dp1709
g2
F446.0
sg3
S'ung_91_39'
p1710
sa(dp1711
g2
F469.0
sg3
S'ung_91_40'
p1712
sa(dp1713
g2
F503.0
sg3
S'ung_91_41'
p1714
sa(dp1715
g2
F560.0
sg3
S'ung_91_42'
p1716
sa(dp1717
g2
F227.0
sg3
S'ung_91_43'
p1718
sa(dp1719
g2
F338.0
sg3
S'ung_91_44'
p1720
sa(dp1721
g2
F371.0
sg3
S'ung_91_45'
p1722
sa(dp1723
g2
F322.0
sg3
S'ung_91_46'
p1724
sa(dp1725
g2
F469.0
sg3
S'ung_91_47'
p1726
sa(dp1727
g2
F440.0
sg3
S'ung_91_48'
p1728
sa(dp1729
g2
F482.0
sg3
S'ung_91_49'
p1730
sa(dp1731
g2
F663.0
sg3
S'ung_91_50'
p1732
sa(dp1733
g2
F484.0
sg3
S'ung_91_51'
p1734
sa(dp1735
g2
F509.0
sg3
S'ung_91_52'
p1736
sa(dp1737
g2
F555.0
sg3
S'ung_91_53'
p1738
sa(dp1739
g2
F678.0
sg3
S'ung_91_54'
p1740
sa(dp1741
g2
F467.0
sg3
S'ung_91_55'
p1742
sa(dp1743
g2
F500.0
sg3
S'ung_91_56'
p1744
sa(dp1745
g2
F1177.0
sg3
S'ung_91_57'
p1746
sa(dp1747
g2
F493.0
sg3
S'ung_91_58'
p1748
sa(dp1749
g2
F312.0
sg3
S'ung_91_59'
p1750
sa(dp1751
g2
F367.0
sg3
S'ung_91_60'
p1752
sa(dp1753
g2
F362.0
sg3
S'ung_91_61'
p1754
sa(dp1755
g2
F1849.0
sg3
S'ung_91_62'
p1756
sa.